 0x000000000000000e (SONAME)             Library soname: [libtins.so.4]
__bss_start B
_edata D
_end B
_fini T
_init T
_Z14resolve_domainRKSsi T
_ZdlPvS_ W
_ZGVN4Tins9HWAddressILm6EE9broadcastE u
_ZGVN4Tins9Internals12PDUAllocatorINS0_7pdu_tagIhEEE10allocatorsE u
_ZGVN4Tins9Internals12PDUAllocatorINS0_7pdu_tagIhEEE9pdu_typesE u
_ZGVN4Tins9Internals12PDUAllocatorINS0_7pdu_tagItEEE10allocatorsE u
_ZGVN4Tins9Internals12PDUAllocatorINS0_7pdu_tagItEEE9pdu_typesE u
_ZN22InterfaceInfoCollectorC1EPN4Tins16NetworkInterface4InfoEiPKc W
_ZN22InterfaceInfoCollectorC2EPN4Tins16NetworkInterface4InfoEiPKc W
_ZN22InterfaceInfoCollectorclEPK7ifaddrs W
_ZN4Tins10EthernetII12payload_typeEt T
_ZN4Tins10EthernetII13recv_responseERNS_12PacketSenderERKNS_16NetworkInterfaceE T
_ZN4Tins10EthernetII16extract_metadataEPKhj T
_ZN4Tins10EthernetII19write_serializationEPhj T
_ZN4Tins10EthernetII4sendERNS_12PacketSenderERKNS_16NetworkInterfaceE T
_ZN4Tins10EthernetII8dst_addrERKNS_9HWAddressILm6EEE T
_ZN4Tins10EthernetII8src_addrERKNS_9HWAddressILm6EEE T
_ZN4Tins10EthernetII9BROADCASTE B 0000000000000006
_ZN4Tins10EthernetIIC1EPKhj T
_ZN4Tins10EthernetIIC1ERKNS_9HWAddressILm6EEES4_ T
_ZN4Tins10EthernetIIC1ERKS0_ W
_ZN4Tins10EthernetIIC2EPKhj T
_ZN4Tins10EthernetIIC2ERKNS_9HWAddressILm6EEES4_ T
_ZN4Tins10EthernetIIC2ERKS0_ W
_ZN4Tins10EthernetIID0Ev W
_ZN4Tins10EthernetIID1Ev W
_ZN4Tins10EthernetIID2Ev W
_ZN4Tins10small_uintILm12EEC1Et W
_ZN4Tins10small_uintILm12EEC2Et W
_ZN4Tins10small_uintILm13EEC1Et W
_ZN4Tins10small_uintILm13EEC2Et W
_ZN4Tins10small_uintILm1EEC1Eh W
_ZN4Tins10small_uintILm1EEC2Eh W
_ZN4Tins10small_uintILm24EEC1Ej W
_ZN4Tins10small_uintILm24EEC2Ej W
_ZN4Tins10small_uintILm2EEC1Eh W
_ZN4Tins10small_uintILm2EEC2Eh W
_ZN4Tins10small_uintILm4EEC1Eh W
_ZN4Tins10small_uintILm4EEC2Eh W
_ZN4Tins11IPv4Address18from_prefix_lengthEj T
_ZN4Tins11IPv4Address9broadcastE B 0000000000000004
_ZN4Tins11IPv4Address9ip_to_intEPKc T
_ZN4Tins11IPv4AddressC1Ej T
_ZN4Tins11IPv4AddressC1EPKc T
_ZN4Tins11IPv4AddressC1ERKSs T
_ZN4Tins11IPv4AddressC2Ej T
_ZN4Tins11IPv4AddressC2EPKc T
_ZN4Tins11IPv4AddressC2ERKSs T
_ZN4Tins11IPv6Address18from_prefix_lengthEj T
_ZN4Tins11IPv6Address3endEv W
_ZN4Tins11IPv6Address4initEPKc T
_ZN4Tins11IPv6Address5beginEv W
_ZN4Tins11IPv6AddressC1EPKc T
_ZN4Tins11IPv6AddressC1EPKh T
_ZN4Tins11IPv6AddressC1ERKSs T
_ZN4Tins11IPv6AddressC1Ev T
_ZN4Tins11IPv6AddressC2EPKc T
_ZN4Tins11IPv6AddressC2EPKh T
_ZN4Tins11IPv6AddressC2ERKSs T
_ZN4Tins11IPv6AddressC2Ev T
_ZN4Tins11PDUIteratorC1EPNS_3PDUE T
_ZN4Tins11PDUIteratorC2EPNS_3PDUE T
_ZN4Tins11PDUIteratordeEv T
_ZN4Tins11PDUIteratorptEv T
_ZN4Tins12AddressRangeINS_11IPv4AddressEE9from_maskERKS1_S4_ W
_ZN4Tins12AddressRangeINS_11IPv4AddressEEC1ERKS1_S4_b W
_ZN4Tins12AddressRangeINS_11IPv4AddressEEC2ERKS1_S4_b W
_ZN4Tins12AddressRangeINS_11IPv6AddressEE9from_maskERKS1_S4_ W
_ZN4Tins12AddressRangeINS_11IPv6AddressEEC1ERKS1_S4_b W
_ZN4Tins12AddressRangeINS_11IPv6AddressEEC2ERKS1_S4_b W
_ZN4Tins12iterate_pdusEPKNS_3PDUE T
_ZN4Tins12iterate_pdusEPNS_3PDUE T
_ZN4Tins12iterate_pdusERKNS_3PDUE T
_ZN4Tins12iterate_pdusERKNS_6PacketE T
_ZN4Tins12iterate_pdusERNS_3PDUE T
_ZN4Tins12iterate_pdusERNS_6PacketE T
_ZN4Tins12PacketSender12close_socketENS0_10SocketTypeERKNS_16NetworkInterfaceE T
_ZN4Tins12PacketSender14open_l2_socketERKNS_16NetworkInterfaceE T
_ZN4Tins12PacketSender14open_l3_socketENS0_10SocketTypeE T
_ZN4Tins12PacketSender15DEFAULT_TIMEOUTE R
_ZN4Tins12PacketSender15recv_match_loopERKSt6vectorIiSaIiEERNS_3PDUEP8sockaddrjb T
_ZN4Tins12PacketSender16get_ether_socketERKNS_16NetworkInterfaceE T
_ZN4Tins12PacketSender17default_interfaceERKNS_16NetworkInterfaceE T
_ZN4Tins12PacketSender18INVALID_RAW_SOCKETE R
_ZN4Tins12PacketSender4sendERNS_3PDUE T
_ZN4Tins12PacketSender4sendERNS_3PDUERKNS_16NetworkInterfaceE T
_ZN4Tins12PacketSender4sendINS_10EthernetIIEEEvRNS_3PDUERKNS_16NetworkInterfaceE W
_ZN4Tins12PacketSender4sendINS_4Dot3EEEvRNS_3PDUERKNS_16NetworkInterfaceE W
_ZN4Tins12PacketSender7recv_l2ERNS_3PDUEP8sockaddrjRKNS_16NetworkInterfaceE T
_ZN4Tins12PacketSender7recv_l3ERNS_3PDUEP8sockaddrjNS0_10SocketTypeE T
_ZN4Tins12PacketSender7send_l2ERNS_3PDUEP8sockaddrjRKNS_16NetworkInterfaceE T
_ZN4Tins12PacketSender7send_l3ERNS_3PDUEP8sockaddrjNS0_10SocketTypeE T
_ZN4Tins12PacketSender9find_typeENS0_10SocketTypeE T
_ZN4Tins12PacketSender9send_recvERNS_3PDUE T
_ZN4Tins12PacketSender9send_recvERNS_3PDUERKNS_16NetworkInterfaceE T
_ZN4Tins12PacketSenderC1ERKNS_16NetworkInterfaceEjj T
_ZN4Tins12PacketSenderC2ERKNS_16NetworkInterfaceEjj T
_ZN4Tins12PacketSenderD1Ev T
_ZN4Tins12PacketSenderD2Ev T
_ZN4Tins13ICMPExtension14extension_typeEh T
_ZN4Tins13ICMPExtension15extension_classEh T
_ZN4Tins13ICMPExtension16BASE_HEADER_SIZEE R
_ZN4Tins13ICMPExtension7payloadERKSt6vectorIhSaIhEE T
_ZN4Tins13ICMPExtensionaSERKS0_ W
_ZN4Tins13ICMPExtensionC1Ehh T
_ZN4Tins13ICMPExtensionC1EPKhj T
_ZN4Tins13ICMPExtensionC1ERKS0_ W
_ZN4Tins13ICMPExtensionC1Ev T
_ZN4Tins13ICMPExtensionC2Ehh T
_ZN4Tins13ICMPExtensionC2EPKhj T
_ZN4Tins13ICMPExtensionC2ERKS0_ W
_ZN4Tins13ICMPExtensionC2Ev T
_ZN4Tins13ICMPExtensionD1Ev W
_ZN4Tins13ICMPExtensionD2Ev W
_ZN4Tins14exception_baseC1EPKc W
_ZN4Tins14exception_baseC1ERKSs W
_ZN4Tins14exception_baseC2EPKc W
_ZN4Tins14exception_baseC2ERKSs W
_ZN4Tins14exception_baseD0Ev W
_ZN4Tins14exception_baseD1Ev W
_ZN4Tins14exception_baseD2Ev W
_ZN4Tins15invalid_addressC1Ev W
_ZN4Tins15invalid_addressC2Ev W
_ZN4Tins15invalid_addressD0Ev W
_ZN4Tins15invalid_addressD1Ev W
_ZN4Tins15invalid_addressD2Ev W
_ZN4Tins15IPv4Reassembler13clear_streamsEv T
_ZN4Tins15IPv4Reassembler13remove_streamEtNS_11IPv4AddressES1_ T
_ZN4Tins15IPv4Reassembler7processERNS_3PDUE T
_ZN4Tins15IPv4ReassemblerC1ENS0_20OverlappingTechniqueE T
_ZN4Tins15IPv4ReassemblerC1Ev T
_ZN4Tins15IPv4ReassemblerC2ENS0_20OverlappingTechniqueE T
_ZN4Tins15IPv4ReassemblerC2Ev T
_ZN4Tins15PDUIteratorBaseINS_11PDUIteratorEEC1Ev W
_ZN4Tins15PDUIteratorBaseINS_11PDUIteratorEEC2Ev W
_ZN4Tins15value_too_largeC1Ev W
_ZN4Tins15value_too_largeC2Ev W
_ZN4Tins15value_too_largeD0Ev W
_ZN4Tins15value_too_largeD1Ev W
_ZN4Tins15value_too_largeD2Ev W
_ZN4Tins16ConstPDUIteratorC1ENS_11PDUIteratorE T
_ZN4Tins16ConstPDUIteratorC1EPKNS_3PDUE T
_ZN4Tins16ConstPDUIteratorC2ENS_11PDUIteratorE T
_ZN4Tins16ConstPDUIteratorC2EPKNS_3PDUE T
_ZN4Tins16malformed_optionC1Ev W
_ZN4Tins16malformed_optionC2Ev W
_ZN4Tins16malformed_optionD0Ev W
_ZN4Tins16malformed_optionD1Ev W
_ZN4Tins16malformed_optionD2Ev W
_ZN4Tins16malformed_packetC1Ev W
_ZN4Tins16malformed_packetC2Ev W
_ZN4Tins16malformed_packetD0Ev W
_ZN4Tins16malformed_packetD1Ev W
_ZN4Tins16malformed_packetD2Ev W
_ZN4Tins16NetworkInterface10from_indexEj T
_ZN4Tins16NetworkInterface10IPv6PrefixC1Ev W
_ZN4Tins16NetworkInterface10IPv6PrefixC2Ev W
_ZN4Tins16NetworkInterface13resolve_indexEPKc T
_ZN4Tins16NetworkInterface17default_interfaceEv T
_ZN4Tins16NetworkInterface3allEv T
_ZN4Tins16NetworkInterface4InfoC1Ev W
_ZN4Tins16NetworkInterface4InfoC2Ev W
_ZN4Tins16NetworkInterface4InfoD1Ev W
_ZN4Tins16NetworkInterface4InfoD2Ev W
_ZN4Tins16NetworkInterfaceC1ENS_11IPv4AddressE T
_ZN4Tins16NetworkInterfaceC1ENS_11IPv6AddressE T
_ZN4Tins16NetworkInterfaceC1EPKc T
_ZN4Tins16NetworkInterfaceC1ERKSs T
_ZN4Tins16NetworkInterfaceC1Ev T
_ZN4Tins16NetworkInterfaceC2ENS_11IPv4AddressE T
_ZN4Tins16NetworkInterfaceC2ENS_11IPv6AddressE T
_ZN4Tins16NetworkInterfaceC2EPKc T
_ZN4Tins16NetworkInterfaceC2ERKSs T
_ZN4Tins16NetworkInterfaceC2Ev T
_ZN4Tins16option_not_foundC1Ev W
_ZN4Tins16option_not_foundC2Ev W
_ZN4Tins16option_not_foundD0Ev W
_ZN4Tins16option_not_foundD1Ev W
_ZN4Tins16option_not_foundD2Ev W
_ZN4Tins16PDUIteratorRangeINS_11PDUIteratorEEC1ES1_S1_ W
_ZN4Tins16PDUIteratorRangeINS_11PDUIteratorEEC2ES1_S1_ W
_ZN4Tins16PDUIteratorRangeINS_16ConstPDUIteratorEEC1ES1_S1_ W
_ZN4Tins16PDUIteratorRangeINS_16ConstPDUIteratorEEC2ES1_S1_ W
_ZN4Tins17invalid_interfaceC1Ev W
_ZN4Tins17invalid_interfaceC2Ev W
_ZN4Tins17invalid_interfaceD0Ev W
_ZN4Tins17invalid_interfaceD1Ev W
_ZN4Tins17invalid_interfaceD2Ev W
_ZN4Tins17make_error_stringEv T
_ZN4Tins17socket_open_errorC1ERKSs W
_ZN4Tins17socket_open_errorC2ERKSs W
_ZN4Tins17socket_open_errorD0Ev W
_ZN4Tins17socket_open_errorD1Ev W
_ZN4Tins17socket_open_errorD2Ev W
_ZN4Tins18socket_close_errorC1ERKSs W
_ZN4Tins18socket_close_errorC2ERKSs W
_ZN4Tins18socket_close_errorD0Ev W
_ZN4Tins18socket_close_errorD1Ev W
_ZN4Tins18socket_close_errorD2Ev W
_ZN4Tins18socket_write_errorC1ERKSs W
_ZN4Tins18socket_write_errorC2ERKSs W
_ZN4Tins18socket_write_errorD0Ev W
_ZN4Tins18socket_write_errorD1Ev W
_ZN4Tins18socket_write_errorD2Ev W
_ZN4Tins19invalid_domain_nameC1Ev W
_ZN4Tins19invalid_domain_nameC2Ev W
_ZN4Tins19invalid_domain_nameD0Ev W
_ZN4Tins19invalid_domain_nameD1Ev W
_ZN4Tins19invalid_domain_nameD2Ev W
_ZN4Tins19invalid_socket_typeC1Ev W
_ZN4Tins19invalid_socket_typeC2Ev W
_ZN4Tins19invalid_socket_typeD0Ev W
_ZN4Tins19invalid_socket_typeD1Ev W
_ZN4Tins19invalid_socket_typeD2Ev W
_ZN4Tins19serialization_errorC1Ev W
_ZN4Tins19serialization_errorC2Ev W
_ZN4Tins19serialization_errorD0Ev W
_ZN4Tins19serialization_errorD1Ev W
_ZN4Tins19serialization_errorD2Ev W
_ZN4Tins21pseudoheader_checksumENS_11IPv4AddressES0_jj T
_ZN4Tins23ICMPExtensionsStructure13add_extensionERKNS_13ICMPExtensionE T
_ZN4Tins23ICMPExtensionsStructure13add_extensionERNS_4MPLSE T
_ZN4Tins23ICMPExtensionsStructure16BASE_HEADER_SIZEE R
_ZN4Tins23ICMPExtensionsStructure19validate_extensionsEPKhj T
_ZN4Tins23ICMPExtensionsStructure20MINIMUM_ICMP_PAYLOADE R
_ZN4Tins23ICMPExtensionsStructure7versionENS_10small_uintILm4EEE T
_ZN4Tins23ICMPExtensionsStructure8reservedENS_10small_uintILm12EEE T
_ZN4Tins23ICMPExtensionsStructure9serializeEPhj T
_ZN4Tins23ICMPExtensionsStructure9serializeEv T
_ZN4Tins23ICMPExtensionsStructureaSERKS0_ W
_ZN4Tins23ICMPExtensionsStructureC1EPKhj T
_ZN4Tins23ICMPExtensionsStructureC1ERKS0_ W
_ZN4Tins23ICMPExtensionsStructureC1Ev T
_ZN4Tins23ICMPExtensionsStructureC2EPKhj T
_ZN4Tins23ICMPExtensionsStructureC2ERKS0_ W
_ZN4Tins23ICMPExtensionsStructureC2Ev T
_ZN4Tins23ICMPExtensionsStructureD1Ev W
_ZN4Tins23ICMPExtensionsStructureD2Ev W
_ZN4Tins23pdu_type_to_sender_typeENS_3PDU7PDUTypeE T
_ZN4Tins24option_payload_too_largeC1Ev W
_ZN4Tins24option_payload_too_largeC2Ev W
_ZN4Tins24option_payload_too_largeD0Ev W
_ZN4Tins24option_payload_too_largeD1Ev W
_ZN4Tins24option_payload_too_largeD2Ev W
_ZN4Tins29invalid_ipv6_extension_headerC1Ev W
_ZN4Tins29invalid_ipv6_extension_headerC2Ev W
_ZN4Tins29invalid_ipv6_extension_headerD0Ev W
_ZN4Tins29invalid_ipv6_extension_headerD1Ev W
_ZN4Tins29invalid_ipv6_extension_headerD2Ev W
_ZN4Tins2IP10add_optionERKNS_9PDUOptionINS0_17option_identifierES0_EE T
_ZN4Tins2IP11DEFAULT_TTLE R
_ZN4Tins2IP12write_optionERKNS_9PDUOptionINS0_17option_identifierES0_EERNS_6Memory18OutputMemoryStreamE T
_ZN4Tins2IP13recv_responseERNS_12PacketSenderERKNS_16NetworkInterfaceE T
_ZN4Tins2IP13remove_optionENS0_17option_identifierE T
_ZN4Tins2IP13security_type11from_optionERKNS_9PDUOptionINS0_17option_identifierES0_EE T
_ZN4Tins2IP13security_typeC1EtttNS_10small_uintILm24EEE W
_ZN4Tins2IP13security_typeC2EtttNS_10small_uintILm24EEE W
_ZN4Tins2IP14init_ip_fieldsEv T
_ZN4Tins2IP15fragment_offsetENS_10small_uintILm13EEE T
_ZN4Tins2IP16add_route_optionENS0_17option_identifierERKNS0_25generic_route_option_typeE T
_ZN4Tins2IP16extract_metadataEPKhj T
_ZN4Tins2IP17option_identifierC1Eh W
_ZN4Tins2IP17option_identifierC1ENS0_12OptionNumberENS0_11OptionClassENS_10small_uintILm1EEE W
_ZN4Tins2IP17option_identifierC1Ev W
_ZN4Tins2IP17option_identifierC2Eh W
_ZN4Tins2IP17option_identifierC2ENS0_12OptionNumberENS0_11OptionClassENS_10small_uintILm1EEE W
_ZN4Tins2IP17option_identifierC2Ev W
_ZN4Tins2IP17stream_identifierEt T
_ZN4Tins2IP19write_serializationEPhj T
_ZN4Tins2IP21prepare_for_serializeEv T
_ZN4Tins2IP22search_option_iteratorENS0_17option_identifierE T
_ZN4Tins2IP25generic_route_option_type11from_optionERKNS_9PDUOptionINS0_17option_identifierES0_EE T
_ZN4Tins2IP25generic_route_option_typeC1EhSt6vectorINS_11IPv4AddressESaIS3_EE W
_ZN4Tins2IP25generic_route_option_typeC2EhSt6vectorINS_11IPv4AddressESaIS3_EE W
_ZN4Tins2IP25generic_route_option_typeD1Ev W
_ZN4Tins2IP25generic_route_option_typeD2Ev W
_ZN4Tins2IP2idEt T
_ZN4Tins2IP3eolEv T
_ZN4Tins2IP3tosEh T
_ZN4Tins2IP3ttlEh T
_ZN4Tins2IP4noopEv T
_ZN4Tins2IP4sendERNS_12PacketSenderERKNS_16NetworkInterfaceE T
_ZN4Tins2IP5flagsENS0_5FlagsE T
_ZN4Tins2IP7tot_lenEt T
_ZN4Tins2IP7versionENS_10small_uintILm4EEE T
_ZN4Tins2IP8checksumEt T
_ZN4Tins2IP8dst_addrENS_11IPv4AddressE T
_ZN4Tins2IP8frag_offEt T
_ZN4Tins2IP8head_lenENS_10small_uintILm4EEE T
_ZN4Tins2IP8protocolEh T
_ZN4Tins2IP8securityERKNS0_13security_typeE T
_ZN4Tins2IP8src_addrENS_11IPv4AddressE T
_ZN4Tins2IPaSERKS0_ W
_ZN4Tins2IPC1ENS_11IPv4AddressES1_ T
_ZN4Tins2IPC1EPKhj T
_ZN4Tins2IPC1ERKS0_ W
_ZN4Tins2IPC2ENS_11IPv4AddressES1_ T
_ZN4Tins2IPC2EPKhj T
_ZN4Tins2IPC2ERKS0_ W
_ZN4Tins2IPD0Ev W
_ZN4Tins2IPD1Ev W
_ZN4Tins2IPD2Ev W
_ZN4Tins3ARP14hw_addr_formatEt T
_ZN4Tins3ARP14hw_addr_lengthEh T
_ZN4Tins3ARP14make_arp_replyENS_11IPv4AddressES1_RKNS_9HWAddressILm6EEES5_ T
_ZN4Tins3ARP14sender_hw_addrERKNS_9HWAddressILm6EEE T
_ZN4Tins3ARP14sender_ip_addrENS_11IPv4AddressE T
_ZN4Tins3ARP14target_hw_addrERKNS_9HWAddressILm6EEE T
_ZN4Tins3ARP14target_ip_addrENS_11IPv4AddressE T
_ZN4Tins3ARP16extract_metadataEPKhj T
_ZN4Tins3ARP16make_arp_requestENS_11IPv4AddressES1_RKNS_9HWAddressILm6EEE T
_ZN4Tins3ARP16prot_addr_formatEt T
_ZN4Tins3ARP16prot_addr_lengthEh T
_ZN4Tins3ARP19write_serializationEPhj T
_ZN4Tins3ARP6opcodeENS0_5FlagsE T
_ZN4Tins3ARPC1ENS_11IPv4AddressES1_RKNS_9HWAddressILm6EEES5_ T
_ZN4Tins3ARPC1EPKhj T
_ZN4Tins3ARPC1ERKS0_ W
_ZN4Tins3ARPC2ENS_11IPv4AddressES1_RKNS_9HWAddressILm6EEES5_ T
_ZN4Tins3ARPC2EPKhj T
_ZN4Tins3ARPC2ERKS0_ W
_ZN4Tins3ARPD0Ev W
_ZN4Tins3ARPD1Ev W
_ZN4Tins3ARPD2Ev W
_ZN4Tins3DNS10add_answerERKNS0_8resourceE T
_ZN4Tins3DNS10add_recordERKNS0_8resourceERKSt6vectorISt4pairIPjjESaIS7_EE T
_ZN4Tins3DNS10soa_record11minimum_ttlEj T
_ZN4Tins3DNS10soa_record4initEPKhj T
_ZN4Tins3DNS10soa_record5mnameERKSs T
_ZN4Tins3DNS10soa_record5retryEj T
_ZN4Tins3DNS10soa_record5rnameERKSs T
_ZN4Tins3DNS10soa_record6expireEj T
_ZN4Tins3DNS10soa_record6serialEj T
_ZN4Tins3DNS10soa_record7refreshEj T
_ZN4Tins3DNS10soa_recordC1EPKhj T
_ZN4Tins3DNS10soa_recordC1ERKNS0_8resourceE T
_ZN4Tins3DNS10soa_recordC1ERKSsS3_jjjjj T
_ZN4Tins3DNS10soa_recordC1Ev T
_ZN4Tins3DNS10soa_recordC2EPKhj T
_ZN4Tins3DNS10soa_recordC2ERKNS0_8resourceE T
_ZN4Tins3DNS10soa_recordC2ERKSsS3_jjjjj T
_ZN4Tins3DNS10soa_recordC2Ev T
_ZN4Tins3DNS12update_dnameEPhjj T
_ZN4Tins3DNS13add_authorityERKNS0_8resourceE T
_ZN4Tins3DNS14add_additionalERKNS0_8resourceE T
_ZN4Tins3DNS14contains_dnameEt T
_ZN4Tins3DNS14update_recordsERjjjj T
_ZN4Tins3DNS16extract_metadataEPKhj T
_ZN4Tins3DNS17checking_disabledEh T
_ZN4Tins3DNS17inline_convert_v4EjPc T
_ZN4Tins3DNS17recursion_desiredEh T
_ZN4Tins3DNS18authenticated_dataEh T
_ZN4Tins3DNS18decode_domain_nameERKSs T
_ZN4Tins3DNS18encode_domain_nameERKSs T
_ZN4Tins3DNS19recursion_availableEh T
_ZN4Tins3DNS19write_serializationEPhj T
_ZN4Tins3DNS1zEh T
_ZN4Tins3DNS20authoritative_answerEh T
_ZN4Tins3DNS2idEt T
_ZN4Tins3DNS4typeENS0_6QRTypeE T
_ZN4Tins3DNS5queryaSERKS1_ W
_ZN4Tins3DNS5queryC1ERKS1_ W
_ZN4Tins3DNS5queryC1ERKSsNS0_9QueryTypeENS0_10QueryClassE W
_ZN4Tins3DNS5queryC2ERKS1_ W
_ZN4Tins3DNS5queryC2ERKSsNS0_9QueryTypeENS0_10QueryClassE W
_ZN4Tins3DNS5queryD1Ev W
_ZN4Tins3DNS5queryD2Ev W
_ZN4Tins3DNS5rcodeEh T
_ZN4Tins3DNS6opcodeEh T
_ZN4Tins3DNS8resourceaSERKS1_ W
_ZN4Tins3DNS8resourceC1ERKS1_ W
_ZN4Tins3DNS8resourceC1ERKSsS3_ttjt W
_ZN4Tins3DNS8resourceC2ERKS1_ W
_ZN4Tins3DNS8resourceC2ERKSsS3_ttjt W
_ZN4Tins3DNS8resourceD1Ev W
_ZN4Tins3DNS8resourceD2Ev W
_ZN4Tins3DNS9add_queryERKNS0_5queryE T
_ZN4Tins3DNS9truncatedEh T
_ZN4Tins3DNSC1EPKhj T
_ZN4Tins3DNSC1ERKS0_ W
_ZN4Tins3DNSC1Ev T
_ZN4Tins3DNSC2EPKhj T
_ZN4Tins3DNSC2ERKS0_ W
_ZN4Tins3DNSC2Ev T
_ZN4Tins3DNSD0Ev W
_ZN4Tins3DNSD1Ev W
_ZN4Tins3DNSD2Ev W
_ZN4Tins3LLC10poll_finalEb T
_ZN4Tins3LLC15send_seq_numberEh T
_ZN4Tins3LLC16GLOBAL_DSAP_ADDRE R
_ZN4Tins3LLC17modifier_functionENS0_17ModifierFunctionsE T
_ZN4Tins3LLC18receive_seq_numberEh T
_ZN4Tins3LLC19add_xid_informationEhhh T
_ZN4Tins3LLC19write_serializationEPhj T
_ZN4Tins3LLC20supervisory_functionENS0_20SupervisoryFunctionsE T
_ZN4Tins3LLC24clear_information_fieldsEv T
_ZN4Tins3LLC4dsapEh T
_ZN4Tins3LLC4dsapEv W
_ZN4Tins3LLC4ssapEh T
_ZN4Tins3LLC4ssapEv W
_ZN4Tins3LLC4typeENS0_6FormatE T
_ZN4Tins3LLC4typeEv W
_ZN4Tins3LLC5groupEb T
_ZN4Tins3LLC8responseEb T
_ZN4Tins3LLC9NULL_ADDRE R
_ZN4Tins3LLCC1Ehh T
_ZN4Tins3LLCC1EPKhj T
_ZN4Tins3LLCC1ERKS0_ W
_ZN4Tins3LLCC1Ev T
_ZN4Tins3LLCC2Ehh T
_ZN4Tins3LLCC2EPKhj T
_ZN4Tins3LLCC2ERKS0_ W
_ZN4Tins3LLCC2Ev T
_ZN4Tins3LLCD0Ev W
_ZN4Tins3LLCD1Ev W
_ZN4Tins3LLCD2Ev W
_ZN4Tins3PDU10parent_pduEPS0_ T
_ZN4Tins3PDU13recv_responseERNS_12PacketSenderERKNS_16NetworkInterfaceE T
_ZN4Tins3PDU14copy_inner_pduERKS0_ T
_ZN4Tins3PDU17release_inner_pduEv T
_ZN4Tins3PDU21prepare_for_serializeEv T
_ZN4Tins3PDU4sendERNS_12PacketSenderERKNS_16NetworkInterfaceE T
_ZN4Tins3PDU8find_pduINS_2IPEEEPT_NS0_7PDUTypeE W
_ZN4Tins3PDU8find_pduINS_3ARPEEEPT_NS0_7PDUTypeE W
_ZN4Tins3PDU8metadataC1EjNS0_7PDUTypeES2_ T
_ZN4Tins3PDU8metadataC1Ev T
_ZN4Tins3PDU8metadataC2EjNS0_7PDUTypeES2_ T
_ZN4Tins3PDU8metadataC2Ev T
_ZN4Tins3PDU9inner_pduEPS0_ T
_ZN4Tins3PDU9inner_pduERKS0_ T
_ZN4Tins3PDU9serializeEPhj T
_ZN4Tins3PDU9serializeEv T
_ZN4Tins3PDUaSERKS0_ T
_ZN4Tins3PDUC1ERKS0_ T
_ZN4Tins3PDUC1Ev T
_ZN4Tins3PDUC2ERKS0_ T
_ZN4Tins3PDUC2Ev T
_ZN4Tins3PDUD0Ev T
_ZN4Tins3PDUD1Ev T
_ZN4Tins3PDUD2Ev T
_ZN4Tins3SLL10lladdr_lenEt T
_ZN4Tins3SLL11lladdr_typeEt T
_ZN4Tins3SLL11packet_typeEt T
_ZN4Tins3SLL19write_serializationEPhj T
_ZN4Tins3SLL7addressERKNS_9HWAddressILm8EEE T
_ZN4Tins3SLL8protocolEt T
_ZN4Tins3SLLC1EPKhj T
_ZN4Tins3SLLC1ERKS0_ W
_ZN4Tins3SLLC1Ev T
_ZN4Tins3SLLC2EPKhj T
_ZN4Tins3SLLC2ERKS0_ W
_ZN4Tins3SLLC2Ev T
_ZN4Tins3SLLD0Ev W
_ZN4Tins3SLLD1Ev W
_ZN4Tins3SLLD2Ev W
_ZN4Tins3STP10bpdu_flagsEh T
_ZN4Tins3STP10hello_timeEt T
_ZN4Tins3STP12bpdu_id_typeC1ENS_10small_uintILm4EEENS2_ILm12EEERKNS_9HWAddressILm6EEE W
_ZN4Tins3STP12bpdu_id_typeC2ENS_10small_uintILm4EEENS2_ILm12EEERKNS_9HWAddressILm6EEE W
_ZN4Tins3STP13proto_versionEh T
_ZN4Tins3STP14root_path_costEj T
_ZN4Tins3STP19write_serializationEPhj T
_ZN4Tins3STP7convertERKNS0_11pvt_bpdu_idE T
_ZN4Tins3STP7convertERKNS0_12bpdu_id_typeE T
_ZN4Tins3STP7max_ageEt T
_ZN4Tins3STP7msg_ageEt T
_ZN4Tins3STP7port_idEt T
_ZN4Tins3STP7root_idERKNS0_12bpdu_id_typeE T
_ZN4Tins3STP8proto_idEt T
_ZN4Tins3STP9bpdu_typeEh T
_ZN4Tins3STP9bridge_idERKNS0_12bpdu_id_typeE T
_ZN4Tins3STP9fwd_delayEt T
_ZN4Tins3STPC1EPKhj T
_ZN4Tins3STPC1ERKS0_ W
_ZN4Tins3STPC1Ev T
_ZN4Tins3STPC2EPKhj T
_ZN4Tins3STPC2ERKS0_ W
_ZN4Tins3STPC2Ev T
_ZN4Tins3STPD0Ev W
_ZN4Tins3STPD1Ev W
_ZN4Tins3STPD2Ev W
_ZN4Tins3TCP10add_optionERKNS_9PDUOptionIhS0_EE T
_ZN4Tins3TCP11altchecksumENS0_12AltChecksumsE T
_ZN4Tins3TCP11data_offsetENS_10small_uintILm4EEE T
_ZN4Tins3TCP12write_optionERKNS_9PDUOptionIhS0_EERNS_6Memory18OutputMemoryStreamE T
_ZN4Tins3TCP13remove_optionENS0_11OptionTypesE T
_ZN4Tins3TCP14DEFAULT_WINDOWE R
_ZN4Tins3TCP14sack_permittedEv T
_ZN4Tins3TCP16extract_metadataEPKhj T
_ZN4Tins3TCP19write_serializationEPhj T
_ZN4Tins3TCP22search_option_iteratorENS0_11OptionTypesE T
_ZN4Tins3TCP3mssEt T
_ZN4Tins3TCP3seqEj T
_ZN4Tins3TCP4sackERKSt6vectorIjSaIjEE T
_ZN4Tins3TCP5dportEt T
_ZN4Tins3TCP5flagsENS_10small_uintILm12EEE T
_ZN4Tins3TCP5sportEt T
_ZN4Tins3TCP6windowEt T
_ZN4Tins3TCP7ack_seqEj T
_ZN4Tins3TCP7urg_ptrEt T
_ZN4Tins3TCP8checksumEt T
_ZN4Tins3TCP8set_flagENS0_5FlagsENS_10small_uintILm1EEE T
_ZN4Tins3TCP8winscaleEh T
_ZN4Tins3TCP9timestampEjj T
_ZN4Tins3TCPC1EPKhj T
_ZN4Tins3TCPC1ERKS0_ W
_ZN4Tins3TCPC1Ett T
_ZN4Tins3TCPC2EPKhj T
_ZN4Tins3TCPC2ERKS0_ W
_ZN4Tins3TCPC2Ett T
_ZN4Tins3TCPD0Ev W
_ZN4Tins3TCPD1Ev W
_ZN4Tins3TCPD2Ev W
_ZN4Tins3UDP16extract_metadataEPKhj T
_ZN4Tins3UDP19write_serializationEPhj T
_ZN4Tins3UDP5dportEt T
_ZN4Tins3UDP5sportEt T
_ZN4Tins3UDP6lengthEt T
_ZN4Tins3UDPC1EPKhj T
_ZN4Tins3UDPC1ERKS0_ W
_ZN4Tins3UDPC1Ett T
_ZN4Tins3UDPC2EPKhj T
_ZN4Tins3UDPC2ERKS0_ W
_ZN4Tins3UDPC2Ett T
_ZN4Tins3UDPD0Ev W
_ZN4Tins3UDPD1Ev W
_ZN4Tins3UDPD2Ev W
_ZN4Tins4DHCP10add_optionERKNS_9PDUOptionIhS0_EE T
_ZN4Tins4DHCP10lease_timeEj T
_ZN4Tins4DHCP11domain_nameERKSs T
_ZN4Tins4DHCP11rebind_timeEj T
_ZN4Tins4DHCP11subnet_maskENS_11IPv4AddressE T
_ZN4Tins4DHCP12renewal_timeEj T
_ZN4Tins4DHCP12requested_ipENS_11IPv4AddressE T
_ZN4Tins4DHCP13remove_optionENS0_11OptionTypesE T
_ZN4Tins4DHCP14serialize_listERKSt6vectorINS_11IPv4AddressESaIS2_EE T
_ZN4Tins4DHCP16extract_metadataEPKhj T
_ZN4Tins4DHCP17server_identifierENS_11IPv4AddressE T
_ZN4Tins4DHCP19domain_name_serversERKSt6vectorINS_11IPv4AddressESaIS2_EE T
_ZN4Tins4DHCP19internal_add_optionERKNS_9PDUOptionIhS0_EE T
_ZN4Tins4DHCP19write_serializationEPhj T
_ZN4Tins4DHCP22search_option_iteratorENS0_11OptionTypesE T
_ZN4Tins4DHCP3endEv T
_ZN4Tins4DHCP4typeENS0_5FlagsE T
_ZN4Tins4DHCP7routersERKSt6vectorINS_11IPv4AddressESaIS2_EE T
_ZN4Tins4DHCP8hostnameERKSs T
_ZN4Tins4DHCP9broadcastENS_11IPv4AddressE T
_ZN4Tins4DHCPC1EPKhj T
_ZN4Tins4DHCPC1ERKS0_ W
_ZN4Tins4DHCPC1Ev T
_ZN4Tins4DHCPC2EPKhj T
_ZN4Tins4DHCPC2ERKS0_ W
_ZN4Tins4DHCPC2Ev T
_ZN4Tins4DHCPD0Ev W
_ZN4Tins4DHCPD1Ev W
_ZN4Tins4DHCPD2Ev W
_ZN4Tins4Dot313recv_responseERNS_12PacketSenderERKNS_16NetworkInterfaceE T
_ZN4Tins4Dot316extract_metadataEPKhj T
_ZN4Tins4Dot319write_serializationEPhj T
_ZN4Tins4Dot34sendERNS_12PacketSenderERKNS_16NetworkInterfaceE T
_ZN4Tins4Dot36lengthEt T
_ZN4Tins4Dot38dst_addrERKNS_9HWAddressILm6EEE T
_ZN4Tins4Dot38src_addrERKNS_9HWAddressILm6EEE T
_ZN4Tins4Dot39BROADCASTE B 0000000000000006
_ZN4Tins4Dot3C1EPKhj T
_ZN4Tins4Dot3C1ERKNS_9HWAddressILm6EEES4_ T
_ZN4Tins4Dot3C1ERKS0_ W
_ZN4Tins4Dot3C2EPKhj T
_ZN4Tins4Dot3C2ERKNS_9HWAddressILm6EEES4_ T
_ZN4Tins4Dot3C2ERKS0_ W
_ZN4Tins4Dot3D0Ev W
_ZN4Tins4Dot3D1Ev W
_ZN4Tins4Dot3D2Ev W
_ZN4Tins4ICMP12address_maskENS_11IPv4AddressE T
_ZN4Tins4ICMP12set_redirectEhNS_11IPv4AddressE T
_ZN4Tins4ICMP14set_echo_replyEtt T
_ZN4Tins4ICMP14set_info_replyEtt T
_ZN4Tins4ICMP16extract_metadataEPKhj T
_ZN4Tins4ICMP16set_echo_requestEtt T
_ZN4Tins4ICMP16set_info_requestEtt T
_ZN4Tins4ICMP16use_length_fieldEb T
_ZN4Tins4ICMP17receive_timestampEj T
_ZN4Tins4ICMP17set_param_problemEbh T
_ZN4Tins4ICMP17set_source_quenchEv T
_ZN4Tins4ICMP17set_time_exceededEb T
_ZN4Tins4ICMP18original_timestampEj T
_ZN4Tins4ICMP18transmit_timestampEj T
_ZN4Tins4ICMP19write_serializationEPhj T
_ZN4Tins4ICMP20set_dest_unreachableEv T
_ZN4Tins4ICMP20try_parse_extensionsERNS_6Memory17InputMemoryStreamE T
_ZN4Tins4ICMP2idEt T
_ZN4Tins4ICMP3mtuEt T
_ZN4Tins4ICMP4codeEh T
_ZN4Tins4ICMP4typeENS0_5FlagsE T
_ZN4Tins4ICMP7gatewayENS_11IPv4AddressE T
_ZN4Tins4ICMP7pointerEh T
_ZN4Tins4ICMP8checksumEt T
_ZN4Tins4ICMP8sequenceEt T
_ZN4Tins4ICMPC1ENS0_5FlagsE T
_ZN4Tins4ICMPC1EPKhj T
_ZN4Tins4ICMPC1ERKS0_ W
_ZN4Tins4ICMPC2ENS0_5FlagsE T
_ZN4Tins4ICMPC2EPKhj T
_ZN4Tins4ICMPC2ERKS0_ W
_ZN4Tins4ICMPD0Ev W
_ZN4Tins4ICMPD1Ev W
_ZN4Tins4ICMPD2Ev W
_ZN4Tins4IPv610add_headerERKNS_9PDUOptionIhS0_EE T
_ZN4Tins4IPv610flow_labelENS_10small_uintILm20EEE T
_ZN4Tins4IPv611next_headerEh T
_ZN4Tins4IPv612write_headerERKNS_9PDUOptionIhS0_EERNS_6Memory18OutputMemoryStreamE T
_ZN4Tins4IPv613recv_responseERNS_12PacketSenderERKNS_16NetworkInterfaceE T
_ZN4Tins4IPv613traffic_classEh T
_ZN4Tins4IPv614add_ext_headerERKNS_9PDUOptionIhS0_EE T
_ZN4Tins4IPv614payload_lengthEt T
_ZN4Tins4IPv614routing_header21from_extension_headerERKNS_9PDUOptionIhS0_EE T
_ZN4Tins4IPv614routing_headerC1Ev W
_ZN4Tins4IPv614routing_headerC2Ev W
_ZN4Tins4IPv614routing_headerD1Ev W
_ZN4Tins4IPv614routing_headerD2Ev W
_ZN4Tins4IPv615fragment_header21from_extension_headerERKNS_9PDUOptionIhS0_EE T
_ZN4Tins4IPv616extract_metadataEPKhj T
_ZN4Tins4IPv616get_padding_sizeERKNS_9PDUOptionIhS0_EE T
_ZN4Tins4IPv617hop_by_hop_header21from_extension_headerERKNS_9PDUOptionIhS0_EE T
_ZN4Tins4IPv617hop_by_hop_headerC1Ev W
_ZN4Tins4IPv617hop_by_hop_headerC2Ev W
_ZN4Tins4IPv617hop_by_hop_headerD1Ev W
_ZN4Tins4IPv617hop_by_hop_headerD2Ev W
_ZN4Tins4IPv619is_extension_headerEh T
_ZN4Tins4IPv619write_serializationEPhj T
_ZN4Tins4IPv620parse_header_optionsEPKhm T
_ZN4Tins4IPv620set_last_next_headerEh T
_ZN4Tins4IPv626destination_routing_header21from_extension_headerERKNS_9PDUOptionIhS0_EE T
_ZN4Tins4IPv626destination_routing_headerC1Ev W
_ZN4Tins4IPv626destination_routing_headerC2Ev W
_ZN4Tins4IPv626destination_routing_headerD1Ev W
_ZN4Tins4IPv626destination_routing_headerD2Ev W
_ZN4Tins4IPv64sendERNS_12PacketSenderERKNS_16NetworkInterfaceE T
_ZN4Tins4IPv67versionENS_10small_uintILm4EEE T
_ZN4Tins4IPv68dst_addrERKNS_11IPv6AddressE T
_ZN4Tins4IPv68src_addrERKNS_11IPv6AddressE T
_ZN4Tins4IPv69hop_limitEh T
_ZN4Tins4IPv6C1ENS_11IPv6AddressES1_PNS_3PDUE T
_ZN4Tins4IPv6C1EPKhj T
_ZN4Tins4IPv6C1ERKS0_ W
_ZN4Tins4IPv6C2ENS_11IPv6AddressES1_PNS_3PDUE T
_ZN4Tins4IPv6C2EPKhj T
_ZN4Tins4IPv6C2ERKS0_ W
_ZN4Tins4IPv6D0Ev W
_ZN4Tins4IPv6D1Ev W
_ZN4Tins4IPv6D2Ev W
_ZN4Tins4MPLS12experimentalENS_10small_uintILm3EEE T
_ZN4Tins4MPLS15bottom_of_stackENS_10small_uintILm1EEE T
_ZN4Tins4MPLS19write_serializationEPhj T
_ZN4Tins4MPLS3ttlEh T
_ZN4Tins4MPLS5labelENS_10small_uintILm20EEE T
_ZN4Tins4MPLSC1EPKhj T
_ZN4Tins4MPLSC1ERKNS_13ICMPExtensionE T
_ZN4Tins4MPLSC1ERKS0_ W
_ZN4Tins4MPLSC1Ev T
_ZN4Tins4MPLSC2EPKhj T
_ZN4Tins4MPLSC2ERKNS_13ICMPExtensionE T
_ZN4Tins4MPLSC2ERKS0_ W
_ZN4Tins4MPLSC2Ev T
_ZN4Tins4MPLSD0Ev W
_ZN4Tins4MPLSD1Ev W
_ZN4Tins4MPLSD2Ev W
_ZN4Tins4SNAP19write_serializationEPhj T
_ZN4Tins4SNAP7controlEh T
_ZN4Tins4SNAP8eth_typeEt T
_ZN4Tins4SNAP8org_codeENS_10small_uintILm24EEE T
_ZN4Tins4SNAPC1EPKhj T
_ZN4Tins4SNAPC1ERKS0_ W
_ZN4Tins4SNAPC1Ev T
_ZN4Tins4SNAPC2EPKhj T
_ZN4Tins4SNAPC2ERKS0_ W
_ZN4Tins4SNAPC2Ev T
_ZN4Tins4SNAPD0Ev W
_ZN4Tins4SNAPD1Ev W
_ZN4Tins4SNAPD2Ev W
_ZN4Tins5BootP19write_serializationEPhj T
_ZN4Tins5BootP3xidEj T
_ZN4Tins5BootP4fileEPKh T
_ZN4Tins5BootP4hlenEh T
_ZN4Tins5BootP4hopsEh T
_ZN4Tins5BootP4secsEt T
_ZN4Tins5BootP4vendERKSt6vectorIhSaIhEE T
_ZN4Tins5BootP4vendEv W
_ZN4Tins5BootP5htypeEh T
_ZN4Tins5BootP5snameEPKh T
_ZN4Tins5BootP6ciaddrENS_11IPv4AddressE T
_ZN4Tins5BootP6giaddrENS_11IPv4AddressE T
_ZN4Tins5BootP6opcodeEh T
_ZN4Tins5BootP6siaddrENS_11IPv4AddressE T
_ZN4Tins5BootP6yiaddrENS_11IPv4AddressE T
_ZN4Tins5BootP7paddingEt T
_ZN4Tins5BootPC1EPKhjj T
_ZN4Tins5BootPC1ERKS0_ W
_ZN4Tins5BootPC1Ev T
_ZN4Tins5BootPC2EPKhjj T
_ZN4Tins5BootPC2ERKS0_ W
_ZN4Tins5BootPC2Ev T
_ZN4Tins5BootPD0Ev W
_ZN4Tins5BootPD1Ev W
_ZN4Tins5BootPD2Ev W
_ZN4Tins5Dot1Q12payload_typeEt T
_ZN4Tins5Dot1Q14append_paddingEb T
_ZN4Tins5Dot1Q16extract_metadataEPKhj T
_ZN4Tins5Dot1Q19write_serializationEPhj T
_ZN4Tins5Dot1Q2idENS_10small_uintILm12EEE T
_ZN4Tins5Dot1Q3cfiENS_10small_uintILm1EEE T
_ZN4Tins5Dot1Q6get_idEPKNS0_12dot1q_headerE T
_ZN4Tins5Dot1Q8priorityENS_10small_uintILm3EEE T
_ZN4Tins5Dot1QC1ENS_10small_uintILm12EEEb T
_ZN4Tins5Dot1QC1EPKhj T
_ZN4Tins5Dot1QC1ERKS0_ W
_ZN4Tins5Dot1QC2ENS_10small_uintILm12EEEb T
_ZN4Tins5Dot1QC2EPKhj T
_ZN4Tins5Dot1QC2ERKS0_ W
_ZN4Tins5Dot1QD0Ev W
_ZN4Tins5Dot1QD1Ev W
_ZN4Tins5Dot1QD2Ev W
_ZN4Tins5EAPOL10from_bytesEPKhj T
_ZN4Tins5EAPOL11packet_typeEh T
_ZN4Tins5EAPOL16extract_metadataEPKhj T
_ZN4Tins5EAPOL19write_serializationEPhj T
_ZN4Tins5EAPOL4typeEh T
_ZN4Tins5EAPOL6lengthEt T
_ZN4Tins5EAPOL7versionEh T
_ZN4Tins5EAPOLC1EhNS0_9EAPOLTYPEE T
_ZN4Tins5EAPOLC1EPKhj T
_ZN4Tins5EAPOLC1ERKS0_ W
_ZN4Tins5EAPOLC2EhNS0_9EAPOLTYPEE T
_ZN4Tins5EAPOLC2EPKhj T
_ZN4Tins5EAPOLC2ERKS0_ W
_ZN4Tins5EAPOLD0Ev W
_ZN4Tins5EAPOLD1Ev W
_ZN4Tins5EAPOLD2Ev W
_ZN4Tins5PPPoE10session_idEt T
_ZN4Tins5PPPoE11end_of_listEv T
_ZN4Tins5PPPoE12service_nameERKSs T
_ZN4Tins5PPPoE13generic_errorERKSs T
_ZN4Tins5PPPoE14payload_lengthEt T
_ZN4Tins5PPPoE15ac_system_errorERKSs T
_ZN4Tins5PPPoE15vendor_specificERKNS0_16vendor_spec_typeE T
_ZN4Tins5PPPoE16add_tag_iterableISsEEvNS0_8TagTypesERKT_ W
_ZN4Tins5PPPoE16add_tag_iterableISt6vectorIhSaIhEEEEvNS0_8TagTypesERKT_ W
_ZN4Tins5PPPoE16relay_session_idERKSt6vectorIhSaIhEE T
_ZN4Tins5PPPoE16vendor_spec_type11from_optionERKNS_9PDUOptionINS0_8TagTypesES0_EE T
_ZN4Tins5PPPoE16vendor_spec_typeC1EjRKSt6vectorIhSaIhEE W
_ZN4Tins5PPPoE16vendor_spec_typeC2EjRKSt6vectorIhSaIhEE W
_ZN4Tins5PPPoE16vendor_spec_typeD1Ev W
_ZN4Tins5PPPoE16vendor_spec_typeD2Ev W
_ZN4Tins5PPPoE18service_name_errorERKSs T
_ZN4Tins5PPPoE19write_serializationEPhj T
_ZN4Tins5PPPoE4codeEh T
_ZN4Tins5PPPoE4typeENS_10small_uintILm4EEE T
_ZN4Tins5PPPoE7ac_nameERKSs T
_ZN4Tins5PPPoE7add_tagERKNS_9PDUOptionINS0_8TagTypesES0_EE T
_ZN4Tins5PPPoE7versionENS_10small_uintILm4EEE T
_ZN4Tins5PPPoE9ac_cookieERKSt6vectorIhSaIhEE T
_ZN4Tins5PPPoE9host_uniqERKSt6vectorIhSaIhEE T
_ZN4Tins5PPPoEC1EPKhj T
_ZN4Tins5PPPoEC1ERKS0_ W
_ZN4Tins5PPPoEC1Ev T
_ZN4Tins5PPPoEC2EPKhj T
_ZN4Tins5PPPoEC2ERKS0_ W
_ZN4Tins5PPPoEC2Ev T
_ZN4Tins5PPPoED0Ev W
_ZN4Tins5PPPoED1Ev W
_ZN4Tins5PPPoED2Ev W
_ZN4Tins5Utils10RouteEntryaSERKS1_ W
_ZN4Tins5Utils10RouteEntryC1ERKS1_ W
_ZN4Tins5Utils10RouteEntryC1Ev W
_ZN4Tins5Utils10RouteEntryC2ERKS1_ W
_ZN4Tins5Utils10RouteEntryC2Ev W
_ZN4Tins5Utils10RouteEntryD1Ev W
_ZN4Tins5Utils10RouteEntryD2Ev W
_ZN4Tins5Utils11do_checksumEPKhS2_ T
_ZN4Tins5Utils11Route6EntryaSERKS1_ W
_ZN4Tins5Utils11Route6EntryC1ERKS1_ W
_ZN4Tins5Utils11Route6EntryC1Ev W
_ZN4Tins5Utils11Route6EntryC2ERKS1_ W
_ZN4Tins5Utils11Route6EntryC2Ev W
_ZN4Tins5Utils11Route6EntryD1Ev W
_ZN4Tins5Utils11Route6EntryD2Ev W
_ZN4Tins5Utils13route_entriesEv T
_ZN4Tins5Utils13route_entriesISt20back_insert_iteratorISt6vectorINS0_10RouteEntryESaIS4_EEEEEvT_ W
_ZN4Tins5Utils14channel_to_mhzEt T
_ZN4Tins5Utils14mhz_to_channelEt T
_ZN4Tins5Utils14resolve_domainERKSs T
_ZN4Tins5Utils14resolve_hwaddrENS_11IPv4AddressERNS_12PacketSenderE T
_ZN4Tins5Utils14resolve_hwaddrERKNS_16NetworkInterfaceENS_11IPv4AddressERNS_12PacketSenderE T
_ZN4Tins5Utils14route6_entriesEv T
_ZN4Tins5Utils14route6_entriesISt20back_insert_iteratorISt6vectorINS0_11Route6EntryESaIS4_EEEEEvT_ W
_ZN4Tins5Utils15gateway_from_ipENS_11IPv4AddressERS1_ T
_ZN4Tins5Utils15gateway_from_ipENS_11IPv6AddressERS1_ T
_ZN4Tins5Utils15resolve_domain6ERKSs T
_ZN4Tins5Utils18network_interfacesEv T
_ZN4Tins5Utils21pseudoheader_checksumENS_11IPv4AddressES1_tt T
_ZN4Tins5Utils21pseudoheader_checksumENS_11IPv6AddressES1_tt T
_ZN4Tins5Utils29generic_pseudoheader_checksumILm12ENS_11IPv4AddressEEEjRKT0_S5_tt W
_ZN4Tins5Utils29generic_pseudoheader_checksumILm36ENS_11IPv6AddressEEEjRKT0_S5_tt W
_ZN4Tins5Utils5crc32EPKhj T
_ZN4Tins5Utils8from_hexERKSsRj T
_ZN4Tins5Utils8from_hexERKSsRSs T
_ZN4Tins5Utils9skip_lineERSi T
_ZN4Tins5Utils9sum_rangeEPKhS2_ T
_ZN4Tins5Utils9to_stringENS_3PDU7PDUTypeE T
_ZN4Tins6DHCPv610add_optionERKNS_9PDUOptionItS0_EE T
_ZN4Tins6DHCPv610ia_addressERKNS0_15ia_address_typeE T
_ZN4Tins6DHCPv610ia_na_type11from_optionERKNS_9PDUOptionItS0_EE T
_ZN4Tins6DHCPv610ia_na_typeC1EjjjRKSt6vectorIhSaIhEE W
_ZN4Tins6DHCPv610ia_na_typeC2EjjjRKSt6vectorIhSaIhEE W
_ZN4Tins6DHCPv610ia_na_typeD1Ev W
_ZN4Tins6DHCPv610ia_na_typeD2Ev W
_ZN4Tins6DHCPv610ia_ta_type11from_optionERKNS_9PDUOptionItS0_EE T
_ZN4Tins6DHCPv610ia_ta_typeC1EjRKSt6vectorIhSaIhEE W
_ZN4Tins6DHCPv610ia_ta_typeC2EjRKSt6vectorIhSaIhEE W
_ZN4Tins6DHCPv610ia_ta_typeD1Ev W
_ZN4Tins6DHCPv610ia_ta_typeD2Ev W
_ZN4Tins6DHCPv610preferenceEh T
_ZN4Tins6DHCPv610user_classERKNS0_15user_class_typeE T
_ZN4Tins6DHCPv611status_codeERKNS0_16status_code_typeE T
_ZN4Tins6DHCPv611vendor_infoERKNS0_16vendor_info_typeE T
_ZN4Tins6DHCPv612elapsed_timeEt T
_ZN4Tins6DHCPv612interface_idERKSt6vectorIhSaIhEE T
_ZN4Tins6DHCPv612link_addressERKNS_11IPv6AddressE T
_ZN4Tins6DHCPv612peer_addressERKNS_11IPv6AddressE T
_ZN4Tins6DHCPv612rapid_commitEv T
_ZN4Tins6DHCPv612vendor_classERKNS0_17vendor_class_typeE T
_ZN4Tins6DHCPv613relay_messageERKSt6vectorIhSaIhEE T
_ZN4Tins6DHCPv613remove_optionENS0_11OptionTypesE T
_ZN4Tins6DHCPv614authenticationERKNS0_19authentication_typeE T
_ZN4Tins6DHCPv614option_requestERKSt6vectorItSaItEE T
_ZN4Tins6DHCPv614server_unicastERKNS_11IPv6AddressE T
_ZN4Tins6DHCPv614transaction_idENS_10small_uintILm24EEE T
_ZN4Tins6DHCPv615ia_address_type11from_optionERKNS_9PDUOptionItS0_EE T
_ZN4Tins6DHCPv615ia_address_typeC1ENS_11IPv6AddressEjjRKSt6vectorIhSaIhEE W
_ZN4Tins6DHCPv615ia_address_typeC2ENS_11IPv6AddressEjjRKSt6vectorIhSaIhEE W
_ZN4Tins6DHCPv615ia_address_typeD1Ev W
_ZN4Tins6DHCPv615ia_address_typeD2Ev W
_ZN4Tins6DHCPv615reconfigure_msgEh T
_ZN4Tins6DHCPv615user_class_type11from_optionERKNS_9PDUOptionItS0_EE T
_ZN4Tins6DHCPv615user_class_typeC1ERKSt6vectorIS2_IhSaIhEESaIS4_EE W
_ZN4Tins6DHCPv615user_class_typeC2ERKSt6vectorIS2_IhSaIhEESaIS4_EE W
_ZN4Tins6DHCPv615user_class_typeD1Ev W
_ZN4Tins6DHCPv615user_class_typeD2Ev W
_ZN4Tins6DHCPv616extract_metadataEPKhj T
_ZN4Tins6DHCPv616status_code_type11from_optionERKNS_9PDUOptionItS0_EE T
_ZN4Tins6DHCPv616status_code_typeC1EtRKSs W
_ZN4Tins6DHCPv616status_code_typeC2EtRKSs W
_ZN4Tins6DHCPv616status_code_typeD1Ev W
_ZN4Tins6DHCPv616status_code_typeD2Ev W
_ZN4Tins6DHCPv616vendor_info_type11from_optionERKNS_9PDUOptionItS0_EE T
_ZN4Tins6DHCPv616vendor_info_typeC1EjRKSt6vectorIhSaIhEE W
_ZN4Tins6DHCPv616vendor_info_typeC2EjRKSt6vectorIhSaIhEE W
_ZN4Tins6DHCPv616vendor_info_typeD1Ev W
_ZN4Tins6DHCPv616vendor_info_typeD2Ev W
_ZN4Tins6DHCPv617vendor_class_type11from_optionERKNS_9PDUOptionItS0_EE T
_ZN4Tins6DHCPv617vendor_class_typeC1EjRKSt6vectorIS2_IhSaIhEESaIS4_EE W
_ZN4Tins6DHCPv617vendor_class_typeC2EjRKSt6vectorIS2_IhSaIhEESaIS4_EE W
_ZN4Tins6DHCPv617vendor_class_typeD1Ev W
_ZN4Tins6DHCPv617vendor_class_typeD2Ev W
_ZN4Tins6DHCPv618reconfigure_acceptEv T
_ZN4Tins6DHCPv619authentication_type11from_optionERKNS_9PDUOptionItS0_EE T
_ZN4Tins6DHCPv619authentication_typeC1EhhhmRKSt6vectorIhSaIhEE W
_ZN4Tins6DHCPv619authentication_typeC2EhhhmRKSt6vectorIhSaIhEE W
_ZN4Tins6DHCPv619authentication_typeD1Ev W
_ZN4Tins6DHCPv619authentication_typeD2Ev W
_ZN4Tins6DHCPv619write_serializationEPhj T
_ZN4Tins6DHCPv622search_option_iteratorENS0_11OptionTypesE T
_ZN4Tins6DHCPv65ia_naERKNS0_10ia_na_typeE T
_ZN4Tins6DHCPv65ia_taERKNS0_10ia_ta_typeE T
_ZN4Tins6DHCPv67duid_en10from_bytesEPKhj T
_ZN4Tins6DHCPv67duid_enC1EjRKSt6vectorIhSaIhEE W
_ZN4Tins6DHCPv67duid_enC2EjRKSt6vectorIhSaIhEE W
_ZN4Tins6DHCPv67duid_enD1Ev W
_ZN4Tins6DHCPv67duid_enD2Ev W
_ZN4Tins6DHCPv67duid_ll10from_bytesEPKhj T
_ZN4Tins6DHCPv67duid_llC1EtRKSt6vectorIhSaIhEE W
_ZN4Tins6DHCPv67duid_llC2EtRKSt6vectorIhSaIhEE W
_ZN4Tins6DHCPv67duid_llD1Ev W
_ZN4Tins6DHCPv67duid_llD2Ev W
_ZN4Tins6DHCPv68duid_llt10from_bytesEPKhj T
_ZN4Tins6DHCPv68duid_lltC1EtjRKSt6vectorIhSaIhEE W
_ZN4Tins6DHCPv68duid_lltC2EtjRKSt6vectorIhSaIhEE W
_ZN4Tins6DHCPv68duid_lltD1Ev W
_ZN4Tins6DHCPv68duid_lltD2Ev W
_ZN4Tins6DHCPv68msg_typeENS0_11MessageTypeE T
_ZN4Tins6DHCPv69client_idERKNS0_9duid_typeE T
_ZN4Tins6DHCPv69duid_type11from_optionERKNS_9PDUOptionItS0_EE T
_ZN4Tins6DHCPv69duid_typeC1EtRKSt6vectorIhSaIhEE W
_ZN4Tins6DHCPv69duid_typeC2EtRKSt6vectorIhSaIhEE W
_ZN4Tins6DHCPv69hop_countEh T
_ZN4Tins6DHCPv69server_idERKNS0_9duid_typeE T
_ZN4Tins6DHCPv6C1EPKhj T
_ZN4Tins6DHCPv6C1ERKS0_ W
_ZN4Tins6DHCPv6C1Ev T
_ZN4Tins6DHCPv6C2EPKhj T
_ZN4Tins6DHCPv6C2ERKS0_ W
_ZN4Tins6DHCPv6C2Ev T
_ZN4Tins6DHCPv6D0Ev W
_ZN4Tins6DHCPv6D1Ev W
_ZN4Tins6DHCPv6D2Ev W
_ZN4Tins6Endian10be_to_hostIhEET_S2_ W
_ZN4Tins6Endian10be_to_hostIjEET_S2_ W
_ZN4Tins6Endian10be_to_hostImEET_S2_ W
_ZN4Tins6Endian10be_to_hostItEET_S2_ W
_ZN4Tins6Endian10host_to_beIjEET_S2_ W
_ZN4Tins6Endian10host_to_beImEET_S2_ W
_ZN4Tins6Endian10host_to_beItEET_S2_ W
_ZN4Tins6Endian10host_to_leItEET_S2_ W
_ZN4Tins6Endian10le_to_hostIhEET_S2_ W
_ZN4Tins6Endian10le_to_hostIjEET_S2_ W
_ZN4Tins6Endian10le_to_hostImEET_S2_ W
_ZN4Tins6Endian10le_to_hostItEET_S2_ W
_ZN4Tins6Endian13change_endianIhEET_S2_ W
_ZN4Tins6Endian13change_endianIjEET_S2_ W
_ZN4Tins6Endian13change_endianImEET_S2_ W
_ZN4Tins6Endian13change_endianItEET_S2_ W
_ZN4Tins6Endian16do_change_endianEh W
_ZN4Tins6Endian16do_change_endianEj W
_ZN4Tins6Endian16do_change_endianEm W
_ZN4Tins6Endian16do_change_endianEt W
_ZN4Tins6Endian26conversion_dispatch_helperIhE8dispatchEh W
_ZN4Tins6Endian26conversion_dispatch_helperIjE8dispatchEj W
_ZN4Tins6Endian26conversion_dispatch_helperImE8dispatchEm W
_ZN4Tins6Endian26conversion_dispatch_helperItE8dispatchEt W
_ZN4Tins6ICMPv610add_optionERKNS_9PDUOptionIhS0_EE T
_ZN4Tins6ICMPv610home_agentENS_10small_uintILm1EEE T
_ZN4Tins6ICMPv610identifierEt T
_ZN4Tins6ICMPv610naack_type11from_optionERKNS_9PDUOptionIhS0_EE T
_ZN4Tins6ICMPv610naack_typeC1Ehh W
_ZN4Tins6ICMPv610naack_typeC2Ehh W
_ZN4Tins6ICMPv610route_infoERKNS0_15route_info_typeE T
_ZN4Tins6ICMPv611lladdr_type11from_optionERKNS_9PDUOptionIhS0_EE T
_ZN4Tins6ICMPv611lladdr_typeC1EhRKSt6vectorIhSaIhEE W
_ZN4Tins6ICMPv611lladdr_typeC2EhRKSt6vectorIhSaIhEE W
_ZN4Tins6ICMPv611lladdr_typeD1Ev W
_ZN4Tins6ICMPv611lladdr_typeD2Ev W
_ZN4Tins6ICMPv611prefix_infoENS0_16prefix_info_typeE T
_ZN4Tins6ICMPv611router_prefENS_10small_uintILm2EEE T
_ZN4Tins6ICMPv611target_addrERKNS_11IPv6AddressE T
_ZN4Tins6ICMPv612write_optionERKNS_9PDUOptionIhS0_EERNS_6Memory18OutputMemoryStreamE T
_ZN4Tins6ICMPv613add_addr_listEhRKNS0_14addr_list_typeE T
_ZN4Tins6ICMPv613parse_optionsERNS_6Memory17InputMemoryStreamE T
_ZN4Tins6ICMPv613remove_optionENS0_11OptionTypesE T
_ZN4Tins6ICMPv613rsa_signatureERKNS0_13rsa_sign_typeE T
_ZN4Tins6ICMPv613rsa_sign_type11from_optionERKNS_9PDUOptionIhS0_EE T
_ZN4Tins6ICMPv613rsa_sign_typeC1Ev W
_ZN4Tins6ICMPv613rsa_sign_typeC2Ev W
_ZN4Tins6ICMPv613rsa_sign_typeD1Ev W
_ZN4Tins6ICMPv613rsa_sign_typeD2Ev W
_ZN4Tins6ICMPv614addr_list_type11from_optionERKNS_9PDUOptionIhS0_EE T
_ZN4Tins6ICMPv614addr_list_typeC1ERKSt6vectorINS_11IPv6AddressESaIS3_EE W
_ZN4Tins6ICMPv614addr_list_typeC2ERKSt6vectorINS_11IPv6AddressESaIS3_EE W
_ZN4Tins6ICMPv614addr_list_typeD1Ev W
_ZN4Tins6ICMPv614addr_list_typeD2Ev W
_ZN4Tins6ICMPv614ip_prefix_type11from_optionERKNS_9PDUOptionIhS0_EE T
_ZN4Tins6ICMPv614ip_prefix_typeC1EhhRKNS_11IPv6AddressE W
_ZN4Tins6ICMPv614ip_prefix_typeC2EhhRKNS_11IPv6AddressE W
_ZN4Tins6ICMPv614multicast_addrERKNS_11IPv6AddressE T
_ZN4Tins6ICMPv614reachable_timeEj T
_ZN4Tins6ICMPv614shortcut_limitERKNS0_19shortcut_limit_typeE T
_ZN4Tins6ICMPv614timestamp_type11from_optionERKNS_9PDUOptionIhS0_EE T
_ZN4Tins6ICMPv614timestamp_typeC1Em W
_ZN4Tins6ICMPv614timestamp_typeC2Em W
_ZN4Tins6ICMPv615dns_search_listERKNS0_20dns_search_list_typeE T
_ZN4Tins6ICMPv615link_layer_addrENS0_11lladdr_typeE T
_ZN4Tins6ICMPv615redirect_headerERKSt6vectorIhSaIhEE T
_ZN4Tins6ICMPv615route_info_type11from_optionERKNS_9PDUOptionIhS0_EE T
_ZN4Tins6ICMPv615route_info_typeC1EhNS_10small_uintILm2EEEjRKSt6vectorIhSaIhEE W
_ZN4Tins6ICMPv615route_info_typeC2EhNS_10small_uintILm2EEEjRKSt6vectorIhSaIhEE W
_ZN4Tins6ICMPv615route_info_typeD1Ev W
_ZN4Tins6ICMPv615route_info_typeD2Ev W
_ZN4Tins6ICMPv615router_lifetimeEt T
_ZN4Tins6ICMPv616prefix_info_type11from_optionERKNS_9PDUOptionIhS0_EE T
_ZN4Tins6ICMPv616prefix_info_typeC1EhNS_10small_uintILm1EEES3_jjRKNS_11IPv6AddressE W
_ZN4Tins6ICMPv616prefix_info_typeC2EhNS_10small_uintILm1EEES3_jjRKNS_11IPv6AddressE W
_ZN4Tins6ICMPv616retransmit_timerEj T
_ZN4Tins6ICMPv616source_addr_listERKNS0_14addr_list_typeE T
_ZN4Tins6ICMPv616target_addr_listERKNS0_14addr_list_typeE T
_ZN4Tins6ICMPv616use_length_fieldEb T
_ZN4Tins6ICMPv618get_option_paddingEj T
_ZN4Tins6ICMPv618handover_key_replyERKNS0_23handover_key_reply_typeE T
_ZN4Tins6ICMPv618recursive_dns_type11from_optionERKNS_9PDUOptionIhS0_EE T
_ZN4Tins6ICMPv618recursive_dns_typeC1EjRKSt6vectorINS_11IPv6AddressESaIS3_EE W
_ZN4Tins6ICMPv618recursive_dns_typeC2EjRKSt6vectorINS_11IPv6AddressESaIS3_EE W
_ZN4Tins6ICMPv618recursive_dns_typeD1Ev W
_ZN4Tins6ICMPv618recursive_dns_typeD2Ev W
_ZN4Tins6ICMPv619internal_add_optionERKNS_9PDUOptionIhS0_EE T
_ZN4Tins6ICMPv619mobile_node_id_type11from_optionERKNS_9PDUOptionIhS0_EE T
_ZN4Tins6ICMPv619mobile_node_id_typeC1EhRKSt6vectorIhSaIhEE W
_ZN4Tins6ICMPv619mobile_node_id_typeC2EhRKSt6vectorIhSaIhEE W
_ZN4Tins6ICMPv619mobile_node_id_typeD1Ev W
_ZN4Tins6ICMPv619mobile_node_id_typeD2Ev W
_ZN4Tins6ICMPv619new_advert_intervalERKNS0_24new_advert_interval_typeE T
_ZN4Tins6ICMPv619new_home_agent_infoERKSt6vectorItSaItEE T
_ZN4Tins6ICMPv619shortcut_limit_type11from_optionERKNS_9PDUOptionIhS0_EE T
_ZN4Tins6ICMPv619shortcut_limit_typeC1Eh W
_ZN4Tins6ICMPv619shortcut_limit_typeC2Eh W
_ZN4Tins6ICMPv619write_serializationEPhj T
_ZN4Tins6ICMPv620dns_search_list_type11from_optionERKNS_9PDUOptionIhS0_EE T
_ZN4Tins6ICMPv620dns_search_list_typeC1EjRKSt6vectorISsSaISsEE W
_ZN4Tins6ICMPv620dns_search_list_typeC2EjRKSt6vectorISsSaISsEE W
_ZN4Tins6ICMPv620dns_search_list_typeD1Ev W
_ZN4Tins6ICMPv620dns_search_list_typeD2Ev W
_ZN4Tins6ICMPv620handover_assist_infoERKNS0_25handover_assist_info_typeE T
_ZN4Tins6ICMPv620handover_key_requestERKNS0_21handover_key_req_typeE T
_ZN4Tins6ICMPv620try_parse_extensionsERNS_6Memory17InputMemoryStreamE T
_ZN4Tins6ICMPv621handover_key_req_type11from_optionERKNS_9PDUOptionIhS0_EE T
_ZN4Tins6ICMPv621handover_key_req_typeC1ENS_10small_uintILm4EEERKSt6vectorIhSaIhEE W
_ZN4Tins6ICMPv621handover_key_req_typeC2ENS_10small_uintILm4EEERKSt6vectorIhSaIhEE W
_ZN4Tins6ICMPv621handover_key_req_typeD1Ev W
_ZN4Tins6ICMPv621handover_key_req_typeD2Ev W
_ZN4Tins6ICMPv621maximum_response_codeEt T
_ZN4Tins6ICMPv621recursive_dns_serversERKNS0_18recursive_dns_typeE T
_ZN4Tins6ICMPv622mobile_node_identifierERKNS0_19mobile_node_id_typeE T
_ZN4Tins6ICMPv622search_option_iteratorENS0_11OptionTypesE T
_ZN4Tins6ICMPv622source_link_layer_addrERKNS_9HWAddressILm6EEE T
_ZN4Tins6ICMPv622target_link_layer_addrERKNS_9HWAddressILm6EEE T
_ZN4Tins6ICMPv623handover_key_reply_type11from_optionERKNS_9PDUOptionIhS0_EE T
_ZN4Tins6ICMPv623handover_key_reply_typeC1EtNS_10small_uintILm4EEERKSt6vectorIhSaIhEE W
_ZN4Tins6ICMPv623handover_key_reply_typeC2EtNS_10small_uintILm4EEERKSt6vectorIhSaIhEE W
_ZN4Tins6ICMPv623handover_key_reply_typeD1Ev W
_ZN4Tins6ICMPv623handover_key_reply_typeD2Ev W
_ZN4Tins6ICMPv624multicast_address_recordaSERKS1_ W
_ZN4Tins6ICMPv624multicast_address_recordC1EPKhj T
_ZN4Tins6ICMPv624multicast_address_recordC1ERKS1_ W
_ZN4Tins6ICMPv624multicast_address_recordC2EPKhj T
_ZN4Tins6ICMPv624multicast_address_recordC2ERKS1_ W
_ZN4Tins6ICMPv624multicast_address_recordD1Ev W
_ZN4Tins6ICMPv624multicast_address_recordD2Ev W
_ZN4Tins6ICMPv624new_advert_interval_type11from_optionERKNS_9PDUOptionIhS0_EE T
_ZN4Tins6ICMPv624new_advert_interval_typeC1Ej W
_ZN4Tins6ICMPv624new_advert_interval_typeC2Ej W
_ZN4Tins6ICMPv625handover_assist_info_type11from_optionERKNS_9PDUOptionIhS0_EE T
_ZN4Tins6ICMPv625handover_assist_info_typeC1EhRKSt6vectorIhSaIhEE W
_ZN4Tins6ICMPv625handover_assist_info_typeC2EhRKSt6vectorIhSaIhEE W
_ZN4Tins6ICMPv625handover_assist_info_typeD1Ev W
_ZN4Tins6ICMPv625handover_assist_info_typeD2Ev W
_ZN4Tins6ICMPv625multicast_address_recordsERKSt6vectorINS0_24multicast_address_recordESaIS2_EE T
_ZN4Tins6ICMPv63mapERKNS0_8map_typeE T
_ZN4Tins6ICMPv63mtuERKSt4pairItjE T
_ZN4Tins6ICMPv63qrvENS_10small_uintILm3EEE T
_ZN4Tins6ICMPv64codeEh T
_ZN4Tins6ICMPv64qqicEh T
_ZN4Tins6ICMPv64typeENS0_5TypesE T
_ZN4Tins6ICMPv65naackERKNS0_10naack_typeE T
_ZN4Tins6ICMPv65nonceERKSt6vectorIhSaIhEE T
_ZN4Tins6ICMPv65otherENS_10small_uintILm1EEE T
_ZN4Tins6ICMPv66routerENS_10small_uintILm1EEE T
_ZN4Tins6ICMPv67managedENS_10small_uintILm1EEE T
_ZN4Tins6ICMPv67sourcesERKSt6vectorINS_11IPv6AddressESaIS2_EE T
_ZN4Tins6ICMPv67supressENS_10small_uintILm1EEE T
_ZN4Tins6ICMPv68checksumEt T
_ZN4Tins6ICMPv68map_type11from_optionERKNS_9PDUOptionIhS0_EE T
_ZN4Tins6ICMPv68map_typeC1ENS_10small_uintILm4EEES3_NS2_ILm1EEEjRKNS_11IPv6AddressE W
_ZN4Tins6ICMPv68map_typeC2ENS_10small_uintILm4EEES3_NS2_ILm1EEEjRKNS_11IPv6AddressE W
_ZN4Tins6ICMPv68overrideENS_10small_uintILm1EEE T
_ZN4Tins6ICMPv68sequenceEt T
_ZN4Tins6ICMPv69dest_addrERKNS_11IPv6AddressE T
_ZN4Tins6ICMPv69hop_limitEh T
_ZN4Tins6ICMPv69ip_prefixERKNS0_14ip_prefix_typeE T
_ZN4Tins6ICMPv69solicitedENS_10small_uintILm1EEE T
_ZN4Tins6ICMPv69timestampERKNS0_14timestamp_typeE T
_ZN4Tins6ICMPv69use_mldv2Eb T
_ZN4Tins6ICMPv6C1ENS0_5TypesE T
_ZN4Tins6ICMPv6C1EPKhj T
_ZN4Tins6ICMPv6C1ERKS0_ W
_ZN4Tins6ICMPv6C2ENS0_5TypesE T
_ZN4Tins6ICMPv6C2EPKhj T
_ZN4Tins6ICMPv6C2ERKS0_ W
_ZN4Tins6ICMPv6D0Ev W
_ZN4Tins6ICMPv6D1Ev W
_ZN4Tins6ICMPv6D2Ev W
_ZN4Tins6Memory10read_valueIhEEvPKhRT_ W
_ZN4Tins6Memory10read_valueIjEEvPKhRT_ W
_ZN4Tins6Memory10read_valueImEEvPKhRT_ W
_ZN4Tins6Memory10read_valueINS_10EthernetII15ethernet_headerEEEvPKhRT_ W
_ZN4Tins6Memory10read_valueINS_2IP9ip_headerEEEvPKhRT_ W
_ZN4Tins6Memory10read_valueINS_3ARP10arp_headerEEEvPKhRT_ W
_ZN4Tins6Memory10read_valueINS_3DNS10dns_headerEEEvPKhRT_ W
_ZN4Tins6Memory10read_valueINS_3LLC16un_control_fieldEEEvPKhRT_ W
_ZN4Tins6Memory10read_valueINS_3LLC18info_control_fieldEEEvPKhRT_ W
_ZN4Tins6Memory10read_valueINS_3LLC6llchdrEEEvPKhRT_ W
_ZN4Tins6Memory10read_valueINS_3SLL10sll_headerEEEvPKhRT_ W
_ZN4Tins6Memory10read_valueINS_3STP10stp_headerEEEvPKhRT_ W
_ZN4Tins6Memory10read_valueINS_3TCP10tcp_headerEEEvPKhRT_ W
_ZN4Tins6Memory10read_valueINS_3UDP10udp_headerEEEvPKhRT_ W
_ZN4Tins6Memory10read_valueINS_4Dot311dot3_headerEEEvPKhRT_ W
_ZN4Tins6Memory10read_valueINS_4ICMP11icmp_headerEEEvPKhRT_ W
_ZN4Tins6Memory10read_valueINS_4IPv611ipv6_headerEEEvPKhRT_ W
_ZN4Tins6Memory10read_valueINS_4MPLS11mpls_headerEEEvPKhRT_ W
_ZN4Tins6Memory10read_valueINS_4SNAP11snap_headerEEEvPKhRT_ W
_ZN4Tins6Memory10read_valueINS_5BootP12bootp_headerEEEvPKhRT_ W
_ZN4Tins6Memory10read_valueINS_5Dot1Q12dot1q_headerEEEvPKhRT_ W
_ZN4Tins6Memory10read_valueINS_5EAPOL12eapol_headerEEEvPKhRT_ W
_ZN4Tins6Memory10read_valueINS_5PPPoE12pppoe_headerEEEvPKhRT_ W
_ZN4Tins6Memory10read_valueINS_6ICMPv612icmp6_headerEEEvPKhRT_ W
_ZN4Tins6Memory10read_valueINS_6ICMPv639multicast_listener_query_message_fieldsEEEvPKhRT_ W
_ZN4Tins6Memory10read_valueINS_7IPSecAH12ipsec_headerEEEvPKhRT_ W
_ZN4Tins6Memory10read_valueINS_8IPSecESP12ipsec_headerEEEvPKhRT_ W
_ZN4Tins6Memory10read_valueINS_8RC4EAPOL16rc4_eapol_headerEEEvPKhRT_ W
_ZN4Tins6Memory10read_valueINS_8RSNEAPOL16rsn_eapol_headerEEEvPKhRT_ W
_ZN4Tins6Memory10read_valueItEEvPKhRT_ W
_ZN4Tins6Memory11write_valueIhEEvPhRKT_ W
_ZN4Tins6Memory11write_valueIjEEvPhRKT_ W
_ZN4Tins6Memory11write_valueImEEvPhRKT_ W
_ZN4Tins6Memory11write_valueINS_10EthernetII15ethernet_headerEEEvPhRKT_ W
_ZN4Tins6Memory11write_valueINS_2IP17option_identifierEEEvPhRKT_ W
_ZN4Tins6Memory11write_valueINS_2IP9ip_headerEEEvPhRKT_ W
_ZN4Tins6Memory11write_valueINS_3ARP10arp_headerEEEvPhRKT_ W
_ZN4Tins6Memory11write_valueINS_3DNS10dns_headerEEEvPhRKT_ W
_ZN4Tins6Memory11write_valueINS_3LLC16un_control_fieldEEEvPhRKT_ W
_ZN4Tins6Memory11write_valueINS_3LLC18info_control_fieldEEEvPhRKT_ W
_ZN4Tins6Memory11write_valueINS_3LLC19super_control_fieldEEEvPhRKT_ W
_ZN4Tins6Memory11write_valueINS_3LLC6llchdrEEEvPhRKT_ W
_ZN4Tins6Memory11write_valueINS_3SLL10sll_headerEEEvPhRKT_ W
_ZN4Tins6Memory11write_valueINS_3STP10stp_headerEEEvPhRKT_ W
_ZN4Tins6Memory11write_valueINS_3TCP10tcp_headerEEEvPhRKT_ W
_ZN4Tins6Memory11write_valueINS_3UDP10udp_headerEEEvPhRKT_ W
_ZN4Tins6Memory11write_valueINS_4Dot311dot3_headerEEEvPhRKT_ W
_ZN4Tins6Memory11write_valueINS_4ICMP11icmp_headerEEEvPhRKT_ W
_ZN4Tins6Memory11write_valueINS_4IPv611ipv6_headerEEEvPhRKT_ W
_ZN4Tins6Memory11write_valueINS_4MPLS11mpls_headerEEEvPhRKT_ W
_ZN4Tins6Memory11write_valueINS_4SNAP11snap_headerEEEvPhRKT_ W
_ZN4Tins6Memory11write_valueINS_5BootP12bootp_headerEEEvPhRKT_ W
_ZN4Tins6Memory11write_valueINS_5Dot1Q12dot1q_headerEEEvPhRKT_ W
_ZN4Tins6Memory11write_valueINS_5EAPOL12eapol_headerEEEvPhRKT_ W
_ZN4Tins6Memory11write_valueINS_5PPPoE12pppoe_headerEEEvPhRKT_ W
_ZN4Tins6Memory11write_valueINS_6ICMPv612icmp6_headerEEEvPhRKT_ W
_ZN4Tins6Memory11write_valueINS_6ICMPv639multicast_listener_query_message_fieldsEEEvPhRKT_ W
_ZN4Tins6Memory11write_valueINS_7IPSecAH12ipsec_headerEEEvPhRKT_ W
_ZN4Tins6Memory11write_valueINS_8IPSecESP12ipsec_headerEEEvPhRKT_ W
_ZN4Tins6Memory11write_valueINS_8RC4EAPOL16rc4_eapol_headerEEEvPhRKT_ W
_ZN4Tins6Memory11write_valueINS_8RSNEAPOL16rsn_eapol_headerEEEvPhRKT_ W
_ZN4Tins6Memory11write_valueItEEvPhRKT_ W
_ZN4Tins6Memory17InputMemoryStream4readEPvm W
_ZN4Tins6Memory17InputMemoryStream4readERNS_11IPv4AddressE T
_ZN4Tins6Memory17InputMemoryStream4readERNS_11IPv6AddressE T
_ZN4Tins6Memory17InputMemoryStream4readERNS_9HWAddressILm6EEE T
_ZN4Tins6Memory17InputMemoryStream4readERSt6vectorIhSaIhEEm T
_ZN4Tins6Memory17InputMemoryStream4readIhEET_v W
_ZN4Tins6Memory17InputMemoryStream4readIhEEvRT_ W
_ZN4Tins6Memory17InputMemoryStream4readIjEET_v W
_ZN4Tins6Memory17InputMemoryStream4readIjEEvRT_ W
_ZN4Tins6Memory17InputMemoryStream4readImEET_v W
_ZN4Tins6Memory17InputMemoryStream4readImEEvRT_ W
_ZN4Tins6Memory17InputMemoryStream4readINS_10EthernetII15ethernet_headerEEEvRT_ W
_ZN4Tins6Memory17InputMemoryStream4readINS_11IPv6AddressEEET_v W
_ZN4Tins6Memory17InputMemoryStream4readINS_2IP9ip_headerEEEvRT_ W
_ZN4Tins6Memory17InputMemoryStream4readINS_3ARP10arp_headerEEEvRT_ W
_ZN4Tins6Memory17InputMemoryStream4readINS_3DNS10dns_headerEEEvRT_ W
_ZN4Tins6Memory17InputMemoryStream4readINS_3LLC16un_control_fieldEEEvRT_ W
_ZN4Tins6Memory17InputMemoryStream4readINS_3LLC18info_control_fieldEEEvRT_ W
_ZN4Tins6Memory17InputMemoryStream4readINS_3LLC6llchdrEEEvRT_ W
_ZN4Tins6Memory17InputMemoryStream4readINS_3SLL10sll_headerEEEvRT_ W
_ZN4Tins6Memory17InputMemoryStream4readINS_3STP10stp_headerEEEvRT_ W
_ZN4Tins6Memory17InputMemoryStream4readINS_3TCP10tcp_headerEEEvRT_ W
_ZN4Tins6Memory17InputMemoryStream4readINS_3UDP10udp_headerEEEvRT_ W
_ZN4Tins6Memory17InputMemoryStream4readINS_4Dot311dot3_headerEEEvRT_ W
_ZN4Tins6Memory17InputMemoryStream4readINS_4ICMP11icmp_headerEEEvRT_ W
_ZN4Tins6Memory17InputMemoryStream4readINS_4IPv611ipv6_headerEEEvRT_ W
_ZN4Tins6Memory17InputMemoryStream4readINS_4MPLS11mpls_headerEEEvRT_ W
_ZN4Tins6Memory17InputMemoryStream4readINS_4SNAP11snap_headerEEEvRT_ W
_ZN4Tins6Memory17InputMemoryStream4readINS_5BootP12bootp_headerEEEvRT_ W
_ZN4Tins6Memory17InputMemoryStream4readINS_5Dot1Q12dot1q_headerEEEvRT_ W
_ZN4Tins6Memory17InputMemoryStream4readINS_5EAPOL12eapol_headerEEEvRT_ W
_ZN4Tins6Memory17InputMemoryStream4readINS_5PPPoE12pppoe_headerEEEvRT_ W
_ZN4Tins6Memory17InputMemoryStream4readINS_6ICMPv612icmp6_headerEEEvRT_ W
_ZN4Tins6Memory17InputMemoryStream4readINS_6ICMPv639multicast_listener_query_message_fieldsEEEvRT_ W
_ZN4Tins6Memory17InputMemoryStream4readINS_7IPSecAH12ipsec_headerEEEvRT_ W
_ZN4Tins6Memory17InputMemoryStream4readINS_8IPSecESP12ipsec_headerEEEvRT_ W
_ZN4Tins6Memory17InputMemoryStream4readINS_8RC4EAPOL16rc4_eapol_headerEEEvRT_ W
_ZN4Tins6Memory17InputMemoryStream4readINS_8RSNEAPOL16rsn_eapol_headerEEEvRT_ W
_ZN4Tins6Memory17InputMemoryStream4readItEET_v W
_ZN4Tins6Memory17InputMemoryStream4readItEEvRT_ W
_ZN4Tins6Memory17InputMemoryStream4sizeEm W
_ZN4Tins6Memory17InputMemoryStream4skipEm W
_ZN4Tins6Memory17InputMemoryStream7read_beIjEET_v W
_ZN4Tins6Memory17InputMemoryStream7read_beImEET_v W
_ZN4Tins6Memory17InputMemoryStream7read_beItEET_v W
_ZN4Tins6Memory17InputMemoryStreamC1EPKhm W
_ZN4Tins6Memory17InputMemoryStreamC1ERKSt6vectorIhSaIhEE W
_ZN4Tins6Memory17InputMemoryStreamC2EPKhm W
_ZN4Tins6Memory17InputMemoryStreamC2ERKSt6vectorIhSaIhEE W
_ZN4Tins6Memory18OutputMemoryStream4fillEmh W
_ZN4Tins6Memory18OutputMemoryStream4skipEm W
_ZN4Tins6Memory18OutputMemoryStream5writeEPKhm W
_ZN4Tins6Memory18OutputMemoryStream5writeERKNS_11IPv4AddressE T
_ZN4Tins6Memory18OutputMemoryStream5writeERKNS_11IPv6AddressE T
_ZN4Tins6Memory18OutputMemoryStream5writeERKNS_9HWAddressILm6EEE T
_ZN4Tins6Memory18OutputMemoryStream5writeIhEEvRKT_ W
_ZN4Tins6Memory18OutputMemoryStream5writeIjEEvRKT_ W
_ZN4Tins6Memory18OutputMemoryStream5writeImEEvRKT_ W
_ZN4Tins6Memory18OutputMemoryStream5writeIN9__gnu_cxx17__normal_iteratorIPcSsEEEEvT_S7_ W
_ZN4Tins6Memory18OutputMemoryStream5writeIN9__gnu_cxx17__normal_iteratorIPhSt6vectorIhSaIhEEEEEEvT_SA_ W
_ZN4Tins6Memory18OutputMemoryStream5writeIN9__gnu_cxx17__normal_iteratorIPKcSsEEEEvT_S8_ W
_ZN4Tins6Memory18OutputMemoryStream5writeIN9__gnu_cxx17__normal_iteratorIPKhSt6vectorIhSaIhEEEEEEvT_SB_ W
_ZN4Tins6Memory18OutputMemoryStream5writeINS_10EthernetII15ethernet_headerEEEvRKT_ W
_ZN4Tins6Memory18OutputMemoryStream5writeINS_2IP17option_identifierEEEvRKT_ W
_ZN4Tins6Memory18OutputMemoryStream5writeINS_2IP9ip_headerEEEvRKT_ W
_ZN4Tins6Memory18OutputMemoryStream5writeINS_3ARP10arp_headerEEEvRKT_ W
_ZN4Tins6Memory18OutputMemoryStream5writeINS_3DNS10dns_headerEEEvRKT_ W
_ZN4Tins6Memory18OutputMemoryStream5writeINS_3LLC16un_control_fieldEEEvRKT_ W
_ZN4Tins6Memory18OutputMemoryStream5writeINS_3LLC18info_control_fieldEEEvRKT_ W
_ZN4Tins6Memory18OutputMemoryStream5writeINS_3LLC19super_control_fieldEEEvRKT_ W
_ZN4Tins6Memory18OutputMemoryStream5writeINS_3LLC6llchdrEEEvRKT_ W
_ZN4Tins6Memory18OutputMemoryStream5writeINS_3SLL10sll_headerEEEvRKT_ W
_ZN4Tins6Memory18OutputMemoryStream5writeINS_3STP10stp_headerEEEvRKT_ W
_ZN4Tins6Memory18OutputMemoryStream5writeINS_3TCP10tcp_headerEEEvRKT_ W
_ZN4Tins6Memory18OutputMemoryStream5writeINS_3UDP10udp_headerEEEvRKT_ W
_ZN4Tins6Memory18OutputMemoryStream5writeINS_4Dot311dot3_headerEEEvRKT_ W
_ZN4Tins6Memory18OutputMemoryStream5writeINS_4ICMP11icmp_headerEEEvRKT_ W
_ZN4Tins6Memory18OutputMemoryStream5writeINS_4IPv611ipv6_headerEEEvRKT_ W
_ZN4Tins6Memory18OutputMemoryStream5writeINS_4MPLS11mpls_headerEEEvRKT_ W
_ZN4Tins6Memory18OutputMemoryStream5writeINS_4SNAP11snap_headerEEEvRKT_ W
_ZN4Tins6Memory18OutputMemoryStream5writeINS_5BootP12bootp_headerEEEvRKT_ W
_ZN4Tins6Memory18OutputMemoryStream5writeINS_5Dot1Q12dot1q_headerEEEvRKT_ W
_ZN4Tins6Memory18OutputMemoryStream5writeINS_5EAPOL12eapol_headerEEEvRKT_ W
_ZN4Tins6Memory18OutputMemoryStream5writeINS_5PPPoE12pppoe_headerEEEvRKT_ W
_ZN4Tins6Memory18OutputMemoryStream5writeINS_6ICMPv612icmp6_headerEEEvRKT_ W
_ZN4Tins6Memory18OutputMemoryStream5writeINS_6ICMPv639multicast_listener_query_message_fieldsEEEvRKT_ W
_ZN4Tins6Memory18OutputMemoryStream5writeINS_7IPSecAH12ipsec_headerEEEvRKT_ W
_ZN4Tins6Memory18OutputMemoryStream5writeINS_8IPSecESP12ipsec_headerEEEvRKT_ W
_ZN4Tins6Memory18OutputMemoryStream5writeINS_8RC4EAPOL16rc4_eapol_headerEEEvRKT_ W
_ZN4Tins6Memory18OutputMemoryStream5writeINS_8RSNEAPOL16rsn_eapol_headerEEEvRKT_ W
_ZN4Tins6Memory18OutputMemoryStream5writeIPKhEEvT_S5_ W
_ZN4Tins6Memory18OutputMemoryStream5writeItEEvRKT_ W
_ZN4Tins6Memory18OutputMemoryStream7pointerEv W
_ZN4Tins6Memory18OutputMemoryStream8write_beIjEEvRKT_ W
_ZN4Tins6Memory18OutputMemoryStream8write_beImEEvRKT_ W
_ZN4Tins6Memory18OutputMemoryStream8write_beItEEvRKT_ W
_ZN4Tins6Memory18OutputMemoryStreamC1EPhm W
_ZN4Tins6Memory18OutputMemoryStreamC1ERSt6vectorIhSaIhEE W
_ZN4Tins6Memory18OutputMemoryStreamC2EPhm W
_ZN4Tins6Memory18OutputMemoryStreamC2ERSt6vectorIhSaIhEE W
_ZN4Tins6Memory9read_dataEPKhPhm W
_ZN4Tins6Packet3pduEv W
_ZN4Tins6RawPDU19write_serializationEPhj T
_ZN4Tins6RawPDU7payloadERKSt6vectorIhSaIhEE T
_ZN4Tins6RawPDUC1EPKhj T
_ZN4Tins6RawPDUC1ERKS0_ W
_ZN4Tins6RawPDUC1ERKSs T
_ZN4Tins6RawPDUC2EPKhj T
_ZN4Tins6RawPDUC2ERKS0_ W
_ZN4Tins6RawPDUC2ERKSs T
_ZN4Tins6RawPDUD0Ev W
_ZN4Tins6RawPDUD1Ev W
_ZN4Tins6RawPDUD2Ev W
_ZN4Tins7IPSecAH10seq_numberEj T
_ZN4Tins7IPSecAH11next_headerEh T
_ZN4Tins7IPSecAH19write_serializationEPhj T
_ZN4Tins7IPSecAH3icvERKSt6vectorIhSaIhEE T
_ZN4Tins7IPSecAH3spiEj T
_ZN4Tins7IPSecAH6lengthEh T
_ZN4Tins7IPSecAHC1EPKhj T
_ZN4Tins7IPSecAHC1ERKS0_ W
_ZN4Tins7IPSecAHC1Ev T
_ZN4Tins7IPSecAHC2EPKhj T
_ZN4Tins7IPSecAHC2ERKS0_ W
_ZN4Tins7IPSecAHC2Ev T
_ZN4Tins7IPSecAHD0Ev W
_ZN4Tins7IPSecAHD1Ev W
_ZN4Tins7IPSecAHD2Ev W
_ZN4Tins8IPSecESP10seq_numberEj T
_ZN4Tins8IPSecESP19write_serializationEPhj T
_ZN4Tins8IPSecESP3spiEj T
_ZN4Tins8IPSecESPC1EPKhj T
_ZN4Tins8IPSecESPC1ERKS0_ W
_ZN4Tins8IPSecESPC1Ev T
_ZN4Tins8IPSecESPC2EPKhj T
_ZN4Tins8IPSecESPC2ERKS0_ W
_ZN4Tins8IPSecESPC2Ev T
_ZN4Tins8IPSecESPD0Ev W
_ZN4Tins8IPSecESPD1Ev W
_ZN4Tins8IPSecESPD2Ev W
_ZN4Tins8Loopback19write_serializationEPhj T
_ZN4Tins8Loopback6familyEj T
_ZN4Tins8LoopbackC1EPKhj T
_ZN4Tins8LoopbackC1ERKS0_ W
_ZN4Tins8LoopbackC1Ev T
_ZN4Tins8LoopbackC2EPKhj T
_ZN4Tins8LoopbackC2ERKS0_ W
_ZN4Tins8LoopbackC2Ev T
_ZN4Tins8LoopbackD0Ev W
_ZN4Tins8LoopbackD1Ev W
_ZN4Tins8LoopbackD2Ev W
_ZN4Tins8RC4EAPOL10key_lengthEt T
_ZN4Tins8RC4EAPOL10write_bodyERNS_6Memory18OutputMemoryStreamE T
_ZN4Tins8RC4EAPOL14replay_counterEm T
_ZN4Tins8RC4EAPOL3keyERKSt6vectorIhSaIhEE T
_ZN4Tins8RC4EAPOL6key_ivEPKh T
_ZN4Tins8RC4EAPOL8key_flagENS_10small_uintILm1EEE T
_ZN4Tins8RC4EAPOL8key_signEPKh T
_ZN4Tins8RC4EAPOL9key_indexENS_10small_uintILm7EEE T
_ZN4Tins8RC4EAPOLC1EPKhj T
_ZN4Tins8RC4EAPOLC1ERKS0_ W
_ZN4Tins8RC4EAPOLC1Ev T
_ZN4Tins8RC4EAPOLC2EPKhj T
_ZN4Tins8RC4EAPOLC2ERKS0_ W
_ZN4Tins8RC4EAPOLC2Ev T
_ZN4Tins8RC4EAPOLD0Ev W
_ZN4Tins8RC4EAPOLD1Ev W
_ZN4Tins8RC4EAPOLD2Ev W
_ZN4Tins8RSNEAPOL10key_lengthEt T
_ZN4Tins8RSNEAPOL10wpa_lengthEt T
_ZN4Tins8RSNEAPOL10write_bodyERNS_6Memory18OutputMemoryStreamE T
_ZN4Tins8RSNEAPOL14key_descriptorENS_10small_uintILm3EEE T
_ZN4Tins8RSNEAPOL14replay_counterEm T
_ZN4Tins8RSNEAPOL2idEPKh T
_ZN4Tins8RSNEAPOL3keyERKSt6vectorIhSaIhEE T
_ZN4Tins8RSNEAPOL3micEPKh T
_ZN4Tins8RSNEAPOL3rscEPKh T
_ZN4Tins8RSNEAPOL5errorENS_10small_uintILm1EEE T
_ZN4Tins8RSNEAPOL5key_tENS_10small_uintILm1EEE T
_ZN4Tins8RSNEAPOL5nonceEPKh T
_ZN4Tins8RSNEAPOL6key_ivEPKh T
_ZN4Tins8RSNEAPOL6secureENS_10small_uintILm1EEE T
_ZN4Tins8RSNEAPOL7installENS_10small_uintILm1EEE T
_ZN4Tins8RSNEAPOL7key_ackENS_10small_uintILm1EEE T
_ZN4Tins8RSNEAPOL7key_micENS_10small_uintILm1EEE T
_ZN4Tins8RSNEAPOL7requestENS_10small_uintILm1EEE T
_ZN4Tins8RSNEAPOL9encryptedENS_10small_uintILm1EEE T
_ZN4Tins8RSNEAPOL9key_indexENS_10small_uintILm2EEE T
_ZN4Tins8RSNEAPOLC1EPKhj T
_ZN4Tins8RSNEAPOLC1ERKS0_ W
_ZN4Tins8RSNEAPOLC1Ev T
_ZN4Tins8RSNEAPOLC2EPKhj T
_ZN4Tins8RSNEAPOLC2ERKS0_ W
_ZN4Tins8RSNEAPOLC2Ev T
_ZN4Tins8RSNEAPOLD0Ev W
_ZN4Tins8RSNEAPOLD1Ev W
_ZN4Tins8RSNEAPOLD2Ev W
_ZN4Tins9HWAddressILm6EE22make_broadcast_addressEv W
_ZN4Tins9HWAddressILm6EE9broadcastE u
_ZN4Tins9HWAddressILm6EEC1EPKh W
_ZN4Tins9HWAddressILm6EEC1ILm18EEERAT__Kc W
_ZN4Tins9HWAddressILm6EEC2EPKh W
_ZN4Tins9HWAddressILm6EEC2ILm18EEERAT__Kc W
_ZN4Tins9Internals10Converters12convert_pairIhhEENS0_9enable_ifIXaasrNS0_20is_unsigned_integralIT_EE5valuesrNS4_IT0_EE5valueESt4pairIS5_S7_EE4typeEPKhjNS_3PDU11endian_typeE W
_ZN4Tins9Internals10Converters12convert_pairIjjEENS0_9enable_ifIXaasrNS0_20is_unsigned_integralIT_EE5valuesrNS4_IT0_EE5valueESt4pairIS5_S7_EE4typeEPKhjNS_3PDU11endian_typeE W
_ZN4Tins9Internals10Converters12convert_pairItjEENS0_9enable_ifIXaasrNS0_20is_unsigned_integralIT_EE5valuesrNS4_IT0_EE5valueESt4pairIS5_S7_EE4typeEPKhjNS_3PDU11endian_typeE W
_ZN4Tins9Internals10Converters14convert_vectorIhEESt6vectorIT_SaIS4_EEPKhjNS_3PDU11endian_typeE W
_ZN4Tins9Internals10Converters14convert_vectorIhhEENS0_9enable_ifIXaasrNS0_20is_unsigned_integralIT_EE5valuesrNS4_IT0_EE5valueESt6vectorISt4pairIS5_S7_ESaISB_EEE4typeEPKhjNS_3PDU11endian_typeE W
_ZN4Tins9Internals10Converters14convert_vectorIjEESt6vectorIT_SaIS4_EEPKhjNS_3PDU11endian_typeE W
_ZN4Tins9Internals10Converters14convert_vectorItEESt6vectorIT_SaIS4_EEPKhjNS_3PDU11endian_typeE W
_ZN4Tins9Internals10Converters19convert_to_integralIjEET_PKhjNS_3PDU11endian_typeE W
_ZN4Tins9Internals10Converters19convert_to_integralImEET_PKhjNS_3PDU11endian_typeE W
_ZN4Tins9Internals10Converters19convert_to_integralItEET_PKhjNS_3PDU11endian_typeE W
_ZN4Tins9Internals10Converters7convertEPKhjNS_3PDU11endian_typeENS0_12type_to_typeIaEE T
_ZN4Tins9Internals10Converters7convertEPKhjNS_3PDU11endian_typeENS0_12type_to_typeIhEE T
_ZN4Tins9Internals10Converters7convertEPKhjNS_3PDU11endian_typeENS0_12type_to_typeIjEE T
_ZN4Tins9Internals10Converters7convertEPKhjNS_3PDU11endian_typeENS0_12type_to_typeImEE T
_ZN4Tins9Internals10Converters7convertEPKhjNS_3PDU11endian_typeENS0_12type_to_typeINS_11IPv4AddressEEE T
_ZN4Tins9Internals10Converters7convertEPKhjNS_3PDU11endian_typeENS0_12type_to_typeINS_11IPv6AddressEEE T
_ZN4Tins9Internals10Converters7convertEPKhjNS_3PDU11endian_typeENS0_12type_to_typeINS_9HWAddressILm6EEEEE T
_ZN4Tins9Internals10Converters7convertEPKhjNS_3PDU11endian_typeENS0_12type_to_typeISsEE T
_ZN4Tins9Internals10Converters7convertEPKhjNS_3PDU11endian_typeENS0_12type_to_typeISt4pairIhhEEE T
_ZN4Tins9Internals10Converters7convertEPKhjNS_3PDU11endian_typeENS0_12type_to_typeISt4pairIjjEEE T
_ZN4Tins9Internals10Converters7convertEPKhjNS_3PDU11endian_typeENS0_12type_to_typeISt4pairItjEEE T
_ZN4Tins9Internals10Converters7convertEPKhjNS_3PDU11endian_typeENS0_12type_to_typeISt6vectorIfSaIfEEEE T
_ZN4Tins9Internals10Converters7convertEPKhjNS_3PDU11endian_typeENS0_12type_to_typeISt6vectorIhSaIhEEEE T
_ZN4Tins9Internals10Converters7convertEPKhjNS_3PDU11endian_typeENS0_12type_to_typeISt6vectorIjSaIjEEEE T
_ZN4Tins9Internals10Converters7convertEPKhjNS_3PDU11endian_typeENS0_12type_to_typeISt6vectorINS_11IPv4AddressESaIS8_EEEE T
_ZN4Tins9Internals10Converters7convertEPKhjNS_3PDU11endian_typeENS0_12type_to_typeISt6vectorINS_11IPv6AddressESaIS8_EEEE T
_ZN4Tins9Internals10Converters7convertEPKhjNS_3PDU11endian_typeENS0_12type_to_typeISt6vectorISt4pairIhhESaIS9_EEEE T
_ZN4Tins9Internals10Converters7convertEPKhjNS_3PDU11endian_typeENS0_12type_to_typeISt6vectorItSaItEEEE T
_ZN4Tins9Internals10Converters7convertEPKhjNS_3PDU11endian_typeENS0_12type_to_typeItEE T
_ZN4Tins9Internals10IPv4Stream12add_fragmentEPNS_2IPE T
_ZN4Tins9Internals10IPv4Stream14extract_offsetEPKNS_2IPE T
_ZN4Tins9Internals10IPv4StreamC1ERKS1_ W
_ZN4Tins9Internals10IPv4StreamC1Ev T
_ZN4Tins9Internals10IPv4StreamC2ERKS1_ W
_ZN4Tins9Internals10IPv4StreamC2Ev T
_ZN4Tins9Internals10IPv4StreamD1Ev W
_ZN4Tins9Internals10IPv4StreamD2Ev W
_ZN4Tins9Internals11find_optionINS_9PDUOptionIhNS_3TCPEEESt6vectorIS4_SaIS4_EEEENT0_8iteratorERS8_NT_11option_typeE W
_ZN4Tins9Internals11find_optionINS_9PDUOptionIhNS_4DHCPEEESt6vectorIS4_SaIS4_EEEENT0_8iteratorERS8_NT_11option_typeE W
_ZN4Tins9Internals11find_optionINS_9PDUOptionIhNS_6ICMPv6EEESt6vectorIS4_SaIS4_EEEENT0_8iteratorERS8_NT_11option_typeE W
_ZN4Tins9Internals11find_optionINS_9PDUOptionINS_2IP17option_identifierES3_EESt6vectorIS5_SaIS5_EEEENT0_8iteratorERS9_NT_11option_typeE W
_ZN4Tins9Internals11find_optionINS_9PDUOptionItNS_6DHCPv6EEESt6vectorIS4_SaIS4_EEEENT0_8iteratorERS8_NT_11option_typeE W
_ZN4Tins9Internals11seq_compareEjj T
_ZN4Tins9Internals12IPv4FragmentaSERKS1_ W
_ZN4Tins9Internals12IPv4FragmentC1ERKS1_ W
_ZN4Tins9Internals12IPv4FragmentC1INS_3PDUEEEPT_t W
_ZN4Tins9Internals12IPv4FragmentC2ERKS1_ W
_ZN4Tins9Internals12IPv4FragmentC2INS_3PDUEEEPT_t W
_ZN4Tins9Internals12IPv4FragmentD1Ev W
_ZN4Tins9Internals12IPv4FragmentD2Ev W
_ZN4Tins9Internals12PDUAllocatorINS0_7pdu_tagIhEEE10allocatorsE u
_ZN4Tins9Internals12PDUAllocatorINS0_7pdu_tagIhEEE14pdu_type_to_idENS_3PDU7PDUTypeE W
_ZN4Tins9Internals12PDUAllocatorINS0_7pdu_tagIhEEE19pdu_type_registeredENS_3PDU7PDUTypeE W
_ZN4Tins9Internals12PDUAllocatorINS0_7pdu_tagIhEEE8allocateEhPKhj W
_ZN4Tins9Internals12PDUAllocatorINS0_7pdu_tagIhEEE9pdu_typesE u
_ZN4Tins9Internals12PDUAllocatorINS0_7pdu_tagItEEE10allocatorsE u
_ZN4Tins9Internals12PDUAllocatorINS0_7pdu_tagItEEE14pdu_type_to_idENS_3PDU7PDUTypeE W
_ZN4Tins9Internals12PDUAllocatorINS0_7pdu_tagItEEE19pdu_type_registeredENS_3PDU7PDUTypeE W
_ZN4Tins9Internals12PDUAllocatorINS0_7pdu_tagItEEE8allocateEtPKhj W
_ZN4Tins9Internals12PDUAllocatorINS0_7pdu_tagItEEE9pdu_typesE u
_ZN4Tins9Internals13pdu_from_flagENS_3PDU7PDUTypeEPKhj T
_ZN4Tins9Internals13pdu_from_flagENS_9Constants2IP1eEPKhjb T
_ZN4Tins9Internals13pdu_from_flagENS_9Constants8Ethernet1eEPKhjb T
_ZN4Tins9Internals14pdu_type_to_idINS_10EthernetIIEEENS0_14pdu_tag_mapperIT_E4type15identifier_typeENS_3PDU7PDUTypeE W
_ZN4Tins9Internals14pdu_type_to_idINS_2IPEEENS0_14pdu_tag_mapperIT_E4type15identifier_typeENS_3PDU7PDUTypeE W
_ZN4Tins9Internals14pdu_type_to_idINS_4IPv6EEENS0_14pdu_tag_mapperIT_E4type15identifier_typeENS_3PDU7PDUTypeE W
_ZN4Tins9Internals16decrement_bufferINS_11IPv6AddressEEEbRT_ W
_ZN4Tins9Internals16increment_bufferINS_11IPv6AddressEEEbRT_ W
_ZN4Tins9Internals17find_option_constINS_9PDUOptionIhNS_3TCPEEESt6vectorIS4_SaIS4_EEEENT0_14const_iteratorERKS8_NT_11option_typeE W
_ZN4Tins9Internals17find_option_constINS_9PDUOptionIhNS_4DHCPEEESt6vectorIS4_SaIS4_EEEENT0_14const_iteratorERKS8_NT_11option_typeE W
_ZN4Tins9Internals17find_option_constINS_9PDUOptionIhNS_6ICMPv6EEESt6vectorIS4_SaIS4_EEEENT0_14const_iteratorERKS8_NT_11option_typeE W
_ZN4Tins9Internals17find_option_constINS_9PDUOptionINS_2IP17option_identifierES3_EESt6vectorIS5_SaIS5_EEEENT0_14const_iteratorERKS9_NT_11option_typeE W
_ZN4Tins9Internals17find_option_constINS_9PDUOptionItNS_6DHCPv6EEESt6vectorIS4_SaIS4_EEEENT0_14const_iteratorERKS8_NT_11option_typeE W
_ZN4Tins9Internals19ip_type_to_pdu_flagENS_9Constants2IP1eE T
_ZN4Tins9Internals19pdu_flag_to_ip_typeENS_3PDU7PDUTypeE T
_ZN4Tins9Internals19pdu_type_registeredINS_10EthernetIIEEEbNS_3PDU7PDUTypeE W
_ZN4Tins9Internals19pdu_type_registeredINS_2IPEEEbNS_3PDU7PDUTypeE W
_ZN4Tins9Internals19pdu_type_registeredINS_4IPv6EEEbNS_3PDU7PDUTypeE W
_ZN4Tins9Internals20hw_address_to_stringEPKhm T
_ZN4Tins9Internals20string_to_hw_addressERKSsPhm T
_ZN4Tins9Internals21hw_address_gt_compareEPKhS2_S2_S2_ T
_ZN4Tins9Internals21hw_address_lt_compareEPKhS2_S2_S2_ T
_ZN4Tins9Internals22ether_type_to_pdu_flagENS_9Constants8Ethernet1eE T
_ZN4Tins9Internals22last_address_from_maskENS_11IPv4AddressES1_ T
_ZN4Tins9Internals22last_address_from_maskENS_11IPv6AddressERKS1_ T
_ZN4Tins9Internals22pdu_flag_to_ether_typeENS_3PDU7PDUTypeE T
_ZN4Tins9Internals24class_option_data2optionIN9__gnu_cxx17__normal_iteratorIPKSt6vectorIhSaIhEES4_IS6_SaIS6_EEEEEEvT_SC_RS6_m W
_ZN4Tins9Internals24hw_address_equal_compareEPKhS2_S2_ T
_ZN4Tins9Internals24option2class_option_dataISt6vectorIS2_IhSaIhEESaIS4_EEEET_PKhj W
_ZN4Tins9Internals25try_parse_icmp_extensionsERNS_6Memory17InputMemoryStreamEjRNS_23ICMPExtensionsStructureE T
_ZN4Tins9Internals30get_padded_icmp_inner_pdu_sizeEPKNS_3PDUEj T
_ZN4Tins9Internals6unusedINS_16NetworkInterfaceEEEvRKT_ W
_ZN4Tins9Internals8allocateINS_10EthernetIIEEEPNS_3PDUENS0_14pdu_tag_mapperIT_E4type15identifier_typeEPKhj W
_ZN4Tins9Internals8allocateINS_2IPEEEPNS_3PDUENS0_14pdu_tag_mapperIT_E4type15identifier_typeEPKhj W
_ZN4Tins9Internals8allocateINS_4IPv6EEEPNS_3PDUENS0_14pdu_tag_mapperIT_E4type15identifier_typeEPKhj W
_ZN4Tins9Internals9converter10do_convertIhhNS_3TCPEEET_RKNS_9PDUOptionIT0_T1_EENS0_12type_to_typeIhEE W
_ZN4Tins9Internals9converter10do_convertIhhNS_4DHCPEEET_RKNS_9PDUOptionIT0_T1_EENS0_12type_to_typeIhEE W
_ZN4Tins9Internals9converter10do_convertIhtNS_6DHCPv6EEET_RKNS_9PDUOptionIT0_T1_EENS0_12type_to_typeIhEE W
_ZN4Tins9Internals9converter10do_convertIjhNS_4DHCPEEET_RKNS_9PDUOptionIT0_T1_EENS0_12type_to_typeIjEE W
_ZN4Tins9Internals9converter10do_convertINS_11IPv4AddressEhNS_4DHCPEEET_RKNS_9PDUOptionIT0_T1_EENS0_12type_to_typeIS3_EE W
_ZN4Tins9Internals9converter10do_convertINS_11IPv6AddressEtNS_6DHCPv6EEET_RKNS_9PDUOptionIT0_T1_EENS0_12type_to_typeIS3_EE W
_ZN4Tins9Internals9converter10do_convertINS_2IP13security_typeENS3_17option_identifierES3_EET_RKNS_9PDUOptionIT0_T1_EENS0_12type_to_typeIS6_EE W
_ZN4Tins9Internals9converter10do_convertINS_2IP25generic_route_option_typeENS3_17option_identifierES3_EET_RKNS_9PDUOptionIT0_T1_EENS0_12type_to_typeIS6_EE W
_ZN4Tins9Internals9converter10do_convertINS_5PPPoE16vendor_spec_typeENS3_8TagTypesES3_EET_RKNS_9PDUOptionIT0_T1_EENS0_12type_to_typeIS6_EE W
_ZN4Tins9Internals9converter10do_convertINS_6DHCPv610ia_na_typeEtS3_EET_RKNS_9PDUOptionIT0_T1_EENS0_12type_to_typeIS5_EE W
_ZN4Tins9Internals9converter10do_convertINS_6DHCPv610ia_ta_typeEtS3_EET_RKNS_9PDUOptionIT0_T1_EENS0_12type_to_typeIS5_EE W
_ZN4Tins9Internals9converter10do_convertINS_6DHCPv615ia_address_typeEtS3_EET_RKNS_9PDUOptionIT0_T1_EENS0_12type_to_typeIS5_EE W
_ZN4Tins9Internals9converter10do_convertINS_6DHCPv615user_class_typeEtS3_EET_RKNS_9PDUOptionIT0_T1_EENS0_12type_to_typeIS5_EE W
_ZN4Tins9Internals9converter10do_convertINS_6DHCPv616status_code_typeEtS3_EET_RKNS_9PDUOptionIT0_T1_EENS0_12type_to_typeIS5_EE W
_ZN4Tins9Internals9converter10do_convertINS_6DHCPv616vendor_info_typeEtS3_EET_RKNS_9PDUOptionIT0_T1_EENS0_12type_to_typeIS5_EE W
_ZN4Tins9Internals9converter10do_convertINS_6DHCPv617vendor_class_typeEtS3_EET_RKNS_9PDUOptionIT0_T1_EENS0_12type_to_typeIS5_EE W
_ZN4Tins9Internals9converter10do_convertINS_6DHCPv619authentication_typeEtS3_EET_RKNS_9PDUOptionIT0_T1_EENS0_12type_to_typeIS5_EE W
_ZN4Tins9Internals9converter10do_convertINS_6DHCPv69duid_typeEtS3_EET_RKNS_9PDUOptionIT0_T1_EENS0_12type_to_typeIS5_EE W
_ZN4Tins9Internals9converter10do_convertINS_6ICMPv610naack_typeEhS3_EET_RKNS_9PDUOptionIT0_T1_EENS0_12type_to_typeIS5_EE W
_ZN4Tins9Internals9converter10do_convertINS_6ICMPv611lladdr_typeEhS3_EET_RKNS_9PDUOptionIT0_T1_EENS0_12type_to_typeIS5_EE W
_ZN4Tins9Internals9converter10do_convertINS_6ICMPv613rsa_sign_typeEhS3_EET_RKNS_9PDUOptionIT0_T1_EENS0_12type_to_typeIS5_EE W
_ZN4Tins9Internals9converter10do_convertINS_6ICMPv614addr_list_typeEhS3_EET_RKNS_9PDUOptionIT0_T1_EENS0_12type_to_typeIS5_EE W
_ZN4Tins9Internals9converter10do_convertINS_6ICMPv614ip_prefix_typeEhS3_EET_RKNS_9PDUOptionIT0_T1_EENS0_12type_to_typeIS5_EE W
_ZN4Tins9Internals9converter10do_convertINS_6ICMPv614timestamp_typeEhS3_EET_RKNS_9PDUOptionIT0_T1_EENS0_12type_to_typeIS5_EE W
_ZN4Tins9Internals9converter10do_convertINS_6ICMPv615route_info_typeEhS3_EET_RKNS_9PDUOptionIT0_T1_EENS0_12type_to_typeIS5_EE W
_ZN4Tins9Internals9converter10do_convertINS_6ICMPv616prefix_info_typeEhS3_EET_RKNS_9PDUOptionIT0_T1_EENS0_12type_to_typeIS5_EE W
_ZN4Tins9Internals9converter10do_convertINS_6ICMPv618recursive_dns_typeEhS3_EET_RKNS_9PDUOptionIT0_T1_EENS0_12type_to_typeIS5_EE W
_ZN4Tins9Internals9converter10do_convertINS_6ICMPv619mobile_node_id_typeEhS3_EET_RKNS_9PDUOptionIT0_T1_EENS0_12type_to_typeIS5_EE W
_ZN4Tins9Internals9converter10do_convertINS_6ICMPv619shortcut_limit_typeEhS3_EET_RKNS_9PDUOptionIT0_T1_EENS0_12type_to_typeIS5_EE W
_ZN4Tins9Internals9converter10do_convertINS_6ICMPv620dns_search_list_typeEhS3_EET_RKNS_9PDUOptionIT0_T1_EENS0_12type_to_typeIS5_EE W
_ZN4Tins9Internals9converter10do_convertINS_6ICMPv621handover_key_req_typeEhS3_EET_RKNS_9PDUOptionIT0_T1_EENS0_12type_to_typeIS5_EE W
_ZN4Tins9Internals9converter10do_convertINS_6ICMPv623handover_key_reply_typeEhS3_EET_RKNS_9PDUOptionIT0_T1_EENS0_12type_to_typeIS5_EE W
_ZN4Tins9Internals9converter10do_convertINS_6ICMPv624new_advert_interval_typeEhS3_EET_RKNS_9PDUOptionIT0_T1_EENS0_12type_to_typeIS5_EE W
_ZN4Tins9Internals9converter10do_convertINS_6ICMPv625handover_assist_info_typeEhS3_EET_RKNS_9PDUOptionIT0_T1_EENS0_12type_to_typeIS5_EE W
_ZN4Tins9Internals9converter10do_convertINS_6ICMPv68map_typeEhS3_EET_RKNS_9PDUOptionIT0_T1_EENS0_12type_to_typeIS5_EE W
_ZN4Tins9Internals9converter10do_convertINS_9HWAddressILm6EEEhNS_6ICMPv6EEET_RKNS_9PDUOptionIT0_T1_EENS0_12type_to_typeIS4_EE W
_ZN4Tins9Internals9converter10do_convertISshNS_4DHCPEEET_RKNS_9PDUOptionIT0_T1_EENS0_12type_to_typeISsEE W
_ZN4Tins9Internals9converter10do_convertISsNS_5PPPoE8TagTypesES3_EET_RKNS_9PDUOptionIT0_T1_EENS0_12type_to_typeISsEE W
_ZN4Tins9Internals9converter10do_convertISt4pairIjjEhNS_3TCPEjjEET_RKNS_9PDUOptionIT0_T1_EENS0_12type_to_typeIS3_IT2_T3_EEE W
_ZN4Tins9Internals9converter10do_convertISt4pairItjEhNS_6ICMPv6EtjEET_RKNS_9PDUOptionIT0_T1_EENS0_12type_to_typeIS3_IT2_T3_EEE W
_ZN4Tins9Internals9converter10do_convertISt6vectorIhSaIhEEhNS_6ICMPv6EhEET_RKNS_9PDUOptionIT0_T1_EENS0_12type_to_typeIS3_IT2_SaISF_EEEE W
_ZN4Tins9Internals9converter10do_convertISt6vectorIhSaIhEENS_5PPPoE8TagTypesES6_hEET_RKNS_9PDUOptionIT0_T1_EENS0_12type_to_typeIS3_IT2_SaISG_EEEE W
_ZN4Tins9Internals9converter10do_convertISt6vectorIhSaIhEEtNS_6DHCPv6EhEET_RKNS_9PDUOptionIT0_T1_EENS0_12type_to_typeIS3_IT2_SaISF_EEEE W
_ZN4Tins9Internals9converter10do_convertISt6vectorIjSaIjEEhNS_3TCPEjEET_RKNS_9PDUOptionIT0_T1_EENS0_12type_to_typeIS3_IT2_SaISF_EEEE W
_ZN4Tins9Internals9converter10do_convertISt6vectorINS_11IPv4AddressESaIS4_EEhNS_4DHCPES4_EET_RKNS_9PDUOptionIT0_T1_EENS0_12type_to_typeIS3_IT2_SaISG_EEEE W
_ZN4Tins9Internals9converter10do_convertISt6vectorItSaItEEhNS_6ICMPv6EtEET_RKNS_9PDUOptionIT0_T1_EENS0_12type_to_typeIS3_IT2_SaISF_EEEE W
_ZN4Tins9Internals9converter10do_convertISt6vectorItSaItEEtNS_6DHCPv6EtEET_RKNS_9PDUOptionIT0_T1_EENS0_12type_to_typeIS3_IT2_SaISF_EEEE W
_ZN4Tins9Internals9converter10do_convertIthNS_3TCPEEET_RKNS_9PDUOptionIT0_T1_EENS0_12type_to_typeItEE W
_ZN4Tins9Internals9converter10do_convertItNS_2IP17option_identifierES3_EET_RKNS_9PDUOptionIT0_T1_EENS0_12type_to_typeItEE W
_ZN4Tins9Internals9converter10do_convertIttNS_6DHCPv6EEET_RKNS_9PDUOptionIT0_T1_EENS0_12type_to_typeItEE W
_ZN4Tins9Internals9converter7convertIhhNS_3TCPEEET_RKNS_9PDUOptionIT0_T1_EE W
_ZN4Tins9Internals9converter7convertIhhNS_4DHCPEEET_RKNS_9PDUOptionIT0_T1_EE W
_ZN4Tins9Internals9converter7convertIhtNS_6DHCPv6EEET_RKNS_9PDUOptionIT0_T1_EE W
_ZN4Tins9Internals9converter7convertIjhNS_4DHCPEEET_RKNS_9PDUOptionIT0_T1_EE W
_ZN4Tins9Internals9converter7convertINS_11IPv4AddressEhNS_4DHCPEEET_RKNS_9PDUOptionIT0_T1_EE W
_ZN4Tins9Internals9converter7convertINS_11IPv6AddressEtNS_6DHCPv6EEET_RKNS_9PDUOptionIT0_T1_EE W
_ZN4Tins9Internals9converter7convertINS_2IP13security_typeENS3_17option_identifierES3_EET_RKNS_9PDUOptionIT0_T1_EE W
_ZN4Tins9Internals9converter7convertINS_2IP25generic_route_option_typeENS3_17option_identifierES3_EET_RKNS_9PDUOptionIT0_T1_EE W
_ZN4Tins9Internals9converter7convertINS_5PPPoE16vendor_spec_typeENS3_8TagTypesES3_EET_RKNS_9PDUOptionIT0_T1_EE W
_ZN4Tins9Internals9converter7convertINS_6DHCPv610ia_na_typeEtS3_EET_RKNS_9PDUOptionIT0_T1_EE W
_ZN4Tins9Internals9converter7convertINS_6DHCPv610ia_ta_typeEtS3_EET_RKNS_9PDUOptionIT0_T1_EE W
_ZN4Tins9Internals9converter7convertINS_6DHCPv615ia_address_typeEtS3_EET_RKNS_9PDUOptionIT0_T1_EE W
_ZN4Tins9Internals9converter7convertINS_6DHCPv615user_class_typeEtS3_EET_RKNS_9PDUOptionIT0_T1_EE W
_ZN4Tins9Internals9converter7convertINS_6DHCPv616status_code_typeEtS3_EET_RKNS_9PDUOptionIT0_T1_EE W
_ZN4Tins9Internals9converter7convertINS_6DHCPv616vendor_info_typeEtS3_EET_RKNS_9PDUOptionIT0_T1_EE W
_ZN4Tins9Internals9converter7convertINS_6DHCPv617vendor_class_typeEtS3_EET_RKNS_9PDUOptionIT0_T1_EE W
_ZN4Tins9Internals9converter7convertINS_6DHCPv619authentication_typeEtS3_EET_RKNS_9PDUOptionIT0_T1_EE W
_ZN4Tins9Internals9converter7convertINS_6DHCPv69duid_typeEtS3_EET_RKNS_9PDUOptionIT0_T1_EE W
_ZN4Tins9Internals9converter7convertINS_6ICMPv610naack_typeEhS3_EET_RKNS_9PDUOptionIT0_T1_EE W
_ZN4Tins9Internals9converter7convertINS_6ICMPv611lladdr_typeEhS3_EET_RKNS_9PDUOptionIT0_T1_EE W
_ZN4Tins9Internals9converter7convertINS_6ICMPv613rsa_sign_typeEhS3_EET_RKNS_9PDUOptionIT0_T1_EE W
_ZN4Tins9Internals9converter7convertINS_6ICMPv614addr_list_typeEhS3_EET_RKNS_9PDUOptionIT0_T1_EE W
_ZN4Tins9Internals9converter7convertINS_6ICMPv614ip_prefix_typeEhS3_EET_RKNS_9PDUOptionIT0_T1_EE W
_ZN4Tins9Internals9converter7convertINS_6ICMPv614timestamp_typeEhS3_EET_RKNS_9PDUOptionIT0_T1_EE W
_ZN4Tins9Internals9converter7convertINS_6ICMPv615route_info_typeEhS3_EET_RKNS_9PDUOptionIT0_T1_EE W
_ZN4Tins9Internals9converter7convertINS_6ICMPv616prefix_info_typeEhS3_EET_RKNS_9PDUOptionIT0_T1_EE W
_ZN4Tins9Internals9converter7convertINS_6ICMPv618recursive_dns_typeEhS3_EET_RKNS_9PDUOptionIT0_T1_EE W
_ZN4Tins9Internals9converter7convertINS_6ICMPv619mobile_node_id_typeEhS3_EET_RKNS_9PDUOptionIT0_T1_EE W
_ZN4Tins9Internals9converter7convertINS_6ICMPv619shortcut_limit_typeEhS3_EET_RKNS_9PDUOptionIT0_T1_EE W
_ZN4Tins9Internals9converter7convertINS_6ICMPv620dns_search_list_typeEhS3_EET_RKNS_9PDUOptionIT0_T1_EE W
_ZN4Tins9Internals9converter7convertINS_6ICMPv621handover_key_req_typeEhS3_EET_RKNS_9PDUOptionIT0_T1_EE W
_ZN4Tins9Internals9converter7convertINS_6ICMPv623handover_key_reply_typeEhS3_EET_RKNS_9PDUOptionIT0_T1_EE W
_ZN4Tins9Internals9converter7convertINS_6ICMPv624new_advert_interval_typeEhS3_EET_RKNS_9PDUOptionIT0_T1_EE W
_ZN4Tins9Internals9converter7convertINS_6ICMPv625handover_assist_info_typeEhS3_EET_RKNS_9PDUOptionIT0_T1_EE W
_ZN4Tins9Internals9converter7convertINS_6ICMPv68map_typeEhS3_EET_RKNS_9PDUOptionIT0_T1_EE W
_ZN4Tins9Internals9converter7convertINS_9HWAddressILm6EEEhNS_6ICMPv6EEET_RKNS_9PDUOptionIT0_T1_EE W
_ZN4Tins9Internals9converter7convertISshNS_4DHCPEEET_RKNS_9PDUOptionIT0_T1_EE W
_ZN4Tins9Internals9converter7convertISsNS_5PPPoE8TagTypesES3_EET_RKNS_9PDUOptionIT0_T1_EE W
_ZN4Tins9Internals9converter7convertISt4pairIjjEhNS_3TCPEEET_RKNS_9PDUOptionIT0_T1_EE W
_ZN4Tins9Internals9converter7convertISt4pairItjEhNS_6ICMPv6EEET_RKNS_9PDUOptionIT0_T1_EE W
_ZN4Tins9Internals9converter7convertISt6vectorIhSaIhEEhNS_6ICMPv6EEET_RKNS_9PDUOptionIT0_T1_EE W
_ZN4Tins9Internals9converter7convertISt6vectorIhSaIhEENS_5PPPoE8TagTypesES6_EET_RKNS_9PDUOptionIT0_T1_EE W
_ZN4Tins9Internals9converter7convertISt6vectorIhSaIhEEtNS_6DHCPv6EEET_RKNS_9PDUOptionIT0_T1_EE W
_ZN4Tins9Internals9converter7convertISt6vectorIjSaIjEEhNS_3TCPEEET_RKNS_9PDUOptionIT0_T1_EE W
_ZN4Tins9Internals9converter7convertISt6vectorINS_11IPv4AddressESaIS4_EEhNS_4DHCPEEET_RKNS_9PDUOptionIT0_T1_EE W
_ZN4Tins9Internals9converter7convertISt6vectorItSaItEEhNS_6ICMPv6EEET_RKNS_9PDUOptionIT0_T1_EE W
_ZN4Tins9Internals9converter7convertISt6vectorItSaItEEtNS_6DHCPv6EEET_RKNS_9PDUOptionIT0_T1_EE W
_ZN4Tins9Internals9converter7convertIthNS_3TCPEEET_RKNS_9PDUOptionIT0_T1_EE W
_ZN4Tins9Internals9converter7convertItNS_2IP17option_identifierES3_EET_RKNS_9PDUOptionIT0_T1_EE W
_ZN4Tins9Internals9converter7convertIttNS_6DHCPv6EEET_RKNS_9PDUOptionIT0_T1_EE W
_ZN4Tins9Internals9decrementERNS_11IPv4AddressE T
_ZN4Tins9Internals9decrementERNS_11IPv6AddressE T
_ZN4Tins9Internals9incrementERNS_11IPv4AddressE T
_ZN4Tins9Internals9incrementERNS_11IPv6AddressE T
_ZN4Tins9PDUOptionIhNS_3TCPEE20set_payload_contentsIPKhEEvT_S6_ W
_ZN4Tins9PDUOptionIhNS_3TCPEEaSERKS2_ W
_ZN4Tins9PDUOptionIhNS_3TCPEEC1EhmPKh W
_ZN4Tins9PDUOptionIhNS_3TCPEEC1ERKS2_ W
_ZN4Tins9PDUOptionIhNS_3TCPEEC1IPKhEEhT_S6_ W
_ZN4Tins9PDUOptionIhNS_3TCPEEC2EhmPKh W
_ZN4Tins9PDUOptionIhNS_3TCPEEC2ERKS2_ W
_ZN4Tins9PDUOptionIhNS_3TCPEEC2IPKhEEhT_S6_ W
_ZN4Tins9PDUOptionIhNS_3TCPEED1Ev W
_ZN4Tins9PDUOptionIhNS_3TCPEED2Ev W
_ZN4Tins9PDUOptionIhNS_4DHCPEE20set_payload_contentsIN9__gnu_cxx17__normal_iteratorIPhSt6vectorIhSaIhEEEEEEvT_SB_ W
_ZN4Tins9PDUOptionIhNS_4DHCPEE20set_payload_contentsIPKhEEvT_S6_ W
_ZN4Tins9PDUOptionIhNS_4DHCPEEaSERKS2_ W
_ZN4Tins9PDUOptionIhNS_4DHCPEEC1EhmPKh W
_ZN4Tins9PDUOptionIhNS_4DHCPEEC1ERKS2_ W
_ZN4Tins9PDUOptionIhNS_4DHCPEEC1IN9__gnu_cxx17__normal_iteratorIPhSt6vectorIhSaIhEEEEEEhT_SB_ W
_ZN4Tins9PDUOptionIhNS_4DHCPEEC2EhmPKh W
_ZN4Tins9PDUOptionIhNS_4DHCPEEC2ERKS2_ W
_ZN4Tins9PDUOptionIhNS_4DHCPEEC2IN9__gnu_cxx17__normal_iteratorIPhSt6vectorIhSaIhEEEEEEhT_SB_ W
_ZN4Tins9PDUOptionIhNS_4DHCPEED1Ev W
_ZN4Tins9PDUOptionIhNS_4DHCPEED2Ev W
_ZN4Tins9PDUOptionIhNS_4IPv6EE20set_payload_contentsIPKhEEvT_S6_ W
_ZN4Tins9PDUOptionIhNS_4IPv6EE6optionEh W
_ZN4Tins9PDUOptionIhNS_4IPv6EEaSERKS2_ W
_ZN4Tins9PDUOptionIhNS_4IPv6EEC1EhmPKh W
_ZN4Tins9PDUOptionIhNS_4IPv6EEC1ERKS2_ W
_ZN4Tins9PDUOptionIhNS_4IPv6EEC2EhmPKh W
_ZN4Tins9PDUOptionIhNS_4IPv6EEC2ERKS2_ W
_ZN4Tins9PDUOptionIhNS_4IPv6EED1Ev W
_ZN4Tins9PDUOptionIhNS_4IPv6EED2Ev W
_ZN4Tins9PDUOptionIhNS_6ICMPv6EE20set_payload_contentsIN9__gnu_cxx17__normal_iteratorIPhSt6vectorIhSaIhEEEEEEvT_SB_ W
_ZN4Tins9PDUOptionIhNS_6ICMPv6EE20set_payload_contentsIN9__gnu_cxx17__normal_iteratorIPKhSt6vectorIhSaIhEEEEEEvT_SC_ W
_ZN4Tins9PDUOptionIhNS_6ICMPv6EE20set_payload_contentsIPhEEvT_S5_ W
_ZN4Tins9PDUOptionIhNS_6ICMPv6EE20set_payload_contentsIPKhEEvT_S6_ W
_ZN4Tins9PDUOptionIhNS_6ICMPv6EEaSERKS2_ W
_ZN4Tins9PDUOptionIhNS_6ICMPv6EEC1EhmPKh W
_ZN4Tins9PDUOptionIhNS_6ICMPv6EEC1ERKS2_ W
_ZN4Tins9PDUOptionIhNS_6ICMPv6EEC1IN9__gnu_cxx17__normal_iteratorIPhSt6vectorIhSaIhEEEEEEhT_SB_ W
_ZN4Tins9PDUOptionIhNS_6ICMPv6EEC1IN9__gnu_cxx17__normal_iteratorIPKhSt6vectorIhSaIhEEEEEEhT_SC_ W
_ZN4Tins9PDUOptionIhNS_6ICMPv6EEC1IPhEEhT_S5_ W
_ZN4Tins9PDUOptionIhNS_6ICMPv6EEC1IPKhEEhT_S6_ W
_ZN4Tins9PDUOptionIhNS_6ICMPv6EEC2EhmPKh W
_ZN4Tins9PDUOptionIhNS_6ICMPv6EEC2ERKS2_ W
_ZN4Tins9PDUOptionIhNS_6ICMPv6EEC2IN9__gnu_cxx17__normal_iteratorIPhSt6vectorIhSaIhEEEEEEhT_SB_ W
_ZN4Tins9PDUOptionIhNS_6ICMPv6EEC2IN9__gnu_cxx17__normal_iteratorIPKhSt6vectorIhSaIhEEEEEEhT_SC_ W
_ZN4Tins9PDUOptionIhNS_6ICMPv6EEC2IPhEEhT_S5_ W
_ZN4Tins9PDUOptionIhNS_6ICMPv6EEC2IPKhEEhT_S6_ W
_ZN4Tins9PDUOptionIhNS_6ICMPv6EED1Ev W
_ZN4Tins9PDUOptionIhNS_6ICMPv6EED2Ev W
_ZN4Tins9PDUOptionINS_2IP17option_identifierES1_E20set_payload_contentsIPKhEEvT_S7_ W
_ZN4Tins9PDUOptionINS_2IP17option_identifierES1_EaSERKS3_ W
_ZN4Tins9PDUOptionINS_2IP17option_identifierES1_EC1ERKS3_ W
_ZN4Tins9PDUOptionINS_2IP17option_identifierES1_EC1ES2_mPKh W
_ZN4Tins9PDUOptionINS_2IP17option_identifierES1_EC1IPKhEES2_T_S7_ W
_ZN4Tins9PDUOptionINS_2IP17option_identifierES1_EC2ERKS3_ W
_ZN4Tins9PDUOptionINS_2IP17option_identifierES1_EC2ES2_mPKh W
_ZN4Tins9PDUOptionINS_2IP17option_identifierES1_EC2IPKhEES2_T_S7_ W
_ZN4Tins9PDUOptionINS_2IP17option_identifierES1_ED1Ev W
_ZN4Tins9PDUOptionINS_2IP17option_identifierES1_ED2Ev W
_ZN4Tins9PDUOptionINS_5PPPoE8TagTypesES1_E20set_payload_contentsIN9__gnu_cxx17__normal_iteratorIPhSt6vectorIhSaIhEEEEEEvT_SC_ W
_ZN4Tins9PDUOptionINS_5PPPoE8TagTypesES1_E20set_payload_contentsIN9__gnu_cxx17__normal_iteratorIPKcSsEEEEvT_SA_ W
_ZN4Tins9PDUOptionINS_5PPPoE8TagTypesES1_E20set_payload_contentsIN9__gnu_cxx17__normal_iteratorIPKhSt6vectorIhSaIhEEEEEEvT_SD_ W
_ZN4Tins9PDUOptionINS_5PPPoE8TagTypesES1_E20set_payload_contentsIPKhEEvT_S7_ W
_ZN4Tins9PDUOptionINS_5PPPoE8TagTypesES1_EaSERKS3_ W
_ZN4Tins9PDUOptionINS_5PPPoE8TagTypesES1_EC1ERKS3_ W
_ZN4Tins9PDUOptionINS_5PPPoE8TagTypesES1_EC1ES2_mPKh W
_ZN4Tins9PDUOptionINS_5PPPoE8TagTypesES1_EC1IN9__gnu_cxx17__normal_iteratorIPhSt6vectorIhSaIhEEEEEES2_T_SC_ W
_ZN4Tins9PDUOptionINS_5PPPoE8TagTypesES1_EC1IN9__gnu_cxx17__normal_iteratorIPKcSsEEEES2_T_SA_ W
_ZN4Tins9PDUOptionINS_5PPPoE8TagTypesES1_EC1IN9__gnu_cxx17__normal_iteratorIPKhSt6vectorIhSaIhEEEEEES2_T_SD_ W
_ZN4Tins9PDUOptionINS_5PPPoE8TagTypesES1_EC2ERKS3_ W
_ZN4Tins9PDUOptionINS_5PPPoE8TagTypesES1_EC2ES2_mPKh W
_ZN4Tins9PDUOptionINS_5PPPoE8TagTypesES1_EC2IN9__gnu_cxx17__normal_iteratorIPhSt6vectorIhSaIhEEEEEES2_T_SC_ W
_ZN4Tins9PDUOptionINS_5PPPoE8TagTypesES1_EC2IN9__gnu_cxx17__normal_iteratorIPKcSsEEEES2_T_SA_ W
_ZN4Tins9PDUOptionINS_5PPPoE8TagTypesES1_EC2IN9__gnu_cxx17__normal_iteratorIPKhSt6vectorIhSaIhEEEEEES2_T_SD_ W
_ZN4Tins9PDUOptionINS_5PPPoE8TagTypesES1_ED1Ev W
_ZN4Tins9PDUOptionINS_5PPPoE8TagTypesES1_ED2Ev W
_ZN4Tins9PDUOptionItNS_6DHCPv6EE20set_payload_contentsIN9__gnu_cxx17__normal_iteratorIPhSt6vectorIhSaIhEEEEEEvT_SB_ W
_ZN4Tins9PDUOptionItNS_6DHCPv6EE20set_payload_contentsIN9__gnu_cxx17__normal_iteratorIPKhSt6vectorIhSaIhEEEEEEvT_SC_ W
_ZN4Tins9PDUOptionItNS_6DHCPv6EE20set_payload_contentsIPKhEEvT_S6_ W
_ZN4Tins9PDUOptionItNS_6DHCPv6EEaSERKS2_ W
_ZN4Tins9PDUOptionItNS_6DHCPv6EEC1ERKS2_ W
_ZN4Tins9PDUOptionItNS_6DHCPv6EEC1EtmPKh W
_ZN4Tins9PDUOptionItNS_6DHCPv6EEC1IN9__gnu_cxx17__normal_iteratorIPhSt6vectorIhSaIhEEEEEEtT_SB_ W
_ZN4Tins9PDUOptionItNS_6DHCPv6EEC1IN9__gnu_cxx17__normal_iteratorIPKhSt6vectorIhSaIhEEEEEEtT_SC_ W
_ZN4Tins9PDUOptionItNS_6DHCPv6EEC1IPKhEEtT_S6_ W
_ZN4Tins9PDUOptionItNS_6DHCPv6EEC2ERKS2_ W
_ZN4Tins9PDUOptionItNS_6DHCPv6EEC2EtmPKh W
_ZN4Tins9PDUOptionItNS_6DHCPv6EEC2IN9__gnu_cxx17__normal_iteratorIPhSt6vectorIhSaIhEEEEEEtT_SB_ W
_ZN4Tins9PDUOptionItNS_6DHCPv6EEC2IN9__gnu_cxx17__normal_iteratorIPKhSt6vectorIhSaIhEEEEEEtT_SC_ W
_ZN4Tins9PDUOptionItNS_6DHCPv6EEC2IPKhEEtT_S6_ W
_ZN4Tins9PDUOptionItNS_6DHCPv6EED1Ev W
_ZN4Tins9PDUOptionItNS_6DHCPv6EED2Ev W
_ZN4Tins9sum_rangeEPKhS1_ T
_ZN4Tins9Timestamp12current_timeEv T
_ZN4Tins9TimestampC1Em T
_ZN4Tins9TimestampC1ERK7timeval T
_ZN4Tins9TimestampC1Ev T
_ZN4Tins9TimestampC2Em T
_ZN4Tins9TimestampC2ERK7timeval T
_ZN4Tins9TimestampC2Ev T
_ZN4Tins9tins_castIPKNS_2IPEKNS_3PDUEEET_PT0_ W
_ZN4Tins9tins_castIPKNS_2IPENS_3PDUEEET_PT0_ W
_ZN4Tins9tins_castIPKNS_3LLCENS_3PDUEEET_PT0_ W
_ZN4Tins9tins_castIPKNS_4IPv6EKNS_3PDUEEET_PT0_ W
_ZN4Tins9tins_castIPKNS_4IPv6ENS_3PDUEEET_PT0_ W
_ZN4TinsdvERKNS_11IPv4AddressEi T
_ZN4TinsdvERKNS_11IPv6AddressEi T
_ZN4TinsdVINS_10EthernetIIEEERT_S3_RKNS_3PDUE W
_ZN4TinsdvINS_10EthernetIIEEET_S2_RKNS_3PDUE W
_ZN4TinslsERSoRKNS_11IPv4AddressE T
_ZN4TinslsERSoRKNS_11IPv6AddressE T
_ZN9__gnu_cxx13new_allocatorIfE10deallocateEPfm W
_ZN9__gnu_cxx13new_allocatorIfE7destroyEPf W
_ZN9__gnu_cxx13new_allocatorIfE8allocateEmPKv W
_ZN9__gnu_cxx13new_allocatorIfE9constructEPfRKf W
_ZN9__gnu_cxx13new_allocatorIfEC1Ev W
_ZN9__gnu_cxx13new_allocatorIfEC2Ev W
_ZN9__gnu_cxx13new_allocatorIfED1Ev W
_ZN9__gnu_cxx13new_allocatorIfED2Ev W
_ZN9__gnu_cxx13new_allocatorIhE10deallocateEPhm W
_ZN9__gnu_cxx13new_allocatorIhE7destroyEPh W
_ZN9__gnu_cxx13new_allocatorIhE8allocateEmPKv W
_ZN9__gnu_cxx13new_allocatorIhE9constructEPhRKh W
_ZN9__gnu_cxx13new_allocatorIhEC1ERKS1_ W
_ZN9__gnu_cxx13new_allocatorIhEC1Ev W
_ZN9__gnu_cxx13new_allocatorIhEC2ERKS1_ W
_ZN9__gnu_cxx13new_allocatorIhEC2Ev W
_ZN9__gnu_cxx13new_allocatorIhED1Ev W
_ZN9__gnu_cxx13new_allocatorIhED2Ev W
_ZN9__gnu_cxx13new_allocatorIiE10deallocateEPim W
_ZN9__gnu_cxx13new_allocatorIiE7destroyEPi W
_ZN9__gnu_cxx13new_allocatorIiE8allocateEmPKv W
_ZN9__gnu_cxx13new_allocatorIiE9constructEPiRKi W
_ZN9__gnu_cxx13new_allocatorIiEC1ERKS1_ W
_ZN9__gnu_cxx13new_allocatorIiEC1Ev W
_ZN9__gnu_cxx13new_allocatorIiEC2ERKS1_ W
_ZN9__gnu_cxx13new_allocatorIiEC2Ev W
_ZN9__gnu_cxx13new_allocatorIiED1Ev W
_ZN9__gnu_cxx13new_allocatorIiED2Ev W
_ZN9__gnu_cxx13new_allocatorIjE10deallocateEPjm W
_ZN9__gnu_cxx13new_allocatorIjE8allocateEmPKv W
_ZN9__gnu_cxx13new_allocatorIjEC1ERKS1_ W
_ZN9__gnu_cxx13new_allocatorIjEC1Ev W
_ZN9__gnu_cxx13new_allocatorIjEC2ERKS1_ W
_ZN9__gnu_cxx13new_allocatorIjEC2Ev W
_ZN9__gnu_cxx13new_allocatorIjED1Ev W
_ZN9__gnu_cxx13new_allocatorIjED2Ev W
_ZN9__gnu_cxx13new_allocatorIN4Tins11IPv4AddressEE10deallocateEPS2_m W
_ZN9__gnu_cxx13new_allocatorIN4Tins11IPv4AddressEE7destroyEPS2_ W
_ZN9__gnu_cxx13new_allocatorIN4Tins11IPv4AddressEE8allocateEmPKv W
_ZN9__gnu_cxx13new_allocatorIN4Tins11IPv4AddressEE9constructEPS2_RKS2_ W
_ZN9__gnu_cxx13new_allocatorIN4Tins11IPv4AddressEEC1ERKS3_ W
_ZN9__gnu_cxx13new_allocatorIN4Tins11IPv4AddressEEC1Ev W
_ZN9__gnu_cxx13new_allocatorIN4Tins11IPv4AddressEEC2ERKS3_ W
_ZN9__gnu_cxx13new_allocatorIN4Tins11IPv4AddressEEC2Ev W
_ZN9__gnu_cxx13new_allocatorIN4Tins11IPv4AddressEED1Ev W
_ZN9__gnu_cxx13new_allocatorIN4Tins11IPv4AddressEED2Ev W
_ZN9__gnu_cxx13new_allocatorIN4Tins11IPv6AddressEE10deallocateEPS2_m W
_ZN9__gnu_cxx13new_allocatorIN4Tins11IPv6AddressEE7destroyEPS2_ W
_ZN9__gnu_cxx13new_allocatorIN4Tins11IPv6AddressEE8allocateEmPKv W
_ZN9__gnu_cxx13new_allocatorIN4Tins11IPv6AddressEE9constructEPS2_RKS2_ W
_ZN9__gnu_cxx13new_allocatorIN4Tins11IPv6AddressEEC1ERKS3_ W
_ZN9__gnu_cxx13new_allocatorIN4Tins11IPv6AddressEEC1Ev W
_ZN9__gnu_cxx13new_allocatorIN4Tins11IPv6AddressEEC2ERKS3_ W
_ZN9__gnu_cxx13new_allocatorIN4Tins11IPv6AddressEEC2Ev W
_ZN9__gnu_cxx13new_allocatorIN4Tins11IPv6AddressEED1Ev W
_ZN9__gnu_cxx13new_allocatorIN4Tins11IPv6AddressEED2Ev W
_ZN9__gnu_cxx13new_allocatorIN4Tins13ICMPExtensionEE10deallocateEPS2_m W
_ZN9__gnu_cxx13new_allocatorIN4Tins13ICMPExtensionEE7destroyEPS2_ W
_ZN9__gnu_cxx13new_allocatorIN4Tins13ICMPExtensionEE8allocateEmPKv W
_ZN9__gnu_cxx13new_allocatorIN4Tins13ICMPExtensionEE9constructEPS2_RKS2_ W
_ZN9__gnu_cxx13new_allocatorIN4Tins13ICMPExtensionEEC1ERKS3_ W
_ZN9__gnu_cxx13new_allocatorIN4Tins13ICMPExtensionEEC1Ev W
_ZN9__gnu_cxx13new_allocatorIN4Tins13ICMPExtensionEEC2ERKS3_ W
_ZN9__gnu_cxx13new_allocatorIN4Tins13ICMPExtensionEEC2Ev W
_ZN9__gnu_cxx13new_allocatorIN4Tins13ICMPExtensionEED1Ev W
_ZN9__gnu_cxx13new_allocatorIN4Tins13ICMPExtensionEED2Ev W
_ZN9__gnu_cxx13new_allocatorIN4Tins16NetworkInterface10IPv6PrefixEE10deallocateEPS3_m W
_ZN9__gnu_cxx13new_allocatorIN4Tins16NetworkInterface10IPv6PrefixEE7destroyEPS3_ W
_ZN9__gnu_cxx13new_allocatorIN4Tins16NetworkInterface10IPv6PrefixEE8allocateEmPKv W
_ZN9__gnu_cxx13new_allocatorIN4Tins16NetworkInterface10IPv6PrefixEE9constructEPS3_RKS3_ W
_ZN9__gnu_cxx13new_allocatorIN4Tins16NetworkInterface10IPv6PrefixEEC1ERKS4_ W
_ZN9__gnu_cxx13new_allocatorIN4Tins16NetworkInterface10IPv6PrefixEEC1Ev W
_ZN9__gnu_cxx13new_allocatorIN4Tins16NetworkInterface10IPv6PrefixEEC2ERKS4_ W
_ZN9__gnu_cxx13new_allocatorIN4Tins16NetworkInterface10IPv6PrefixEEC2Ev W
_ZN9__gnu_cxx13new_allocatorIN4Tins16NetworkInterface10IPv6PrefixEED1Ev W
_ZN9__gnu_cxx13new_allocatorIN4Tins16NetworkInterface10IPv6PrefixEED2Ev W
_ZN9__gnu_cxx13new_allocatorIN4Tins16NetworkInterfaceEE10deallocateEPS2_m W
_ZN9__gnu_cxx13new_allocatorIN4Tins16NetworkInterfaceEE7destroyEPS2_ W
_ZN9__gnu_cxx13new_allocatorIN4Tins16NetworkInterfaceEE8allocateEmPKv W
_ZN9__gnu_cxx13new_allocatorIN4Tins16NetworkInterfaceEE9constructEPS2_RKS2_ W
_ZN9__gnu_cxx13new_allocatorIN4Tins16NetworkInterfaceEEC1Ev W
_ZN9__gnu_cxx13new_allocatorIN4Tins16NetworkInterfaceEEC2Ev W
_ZN9__gnu_cxx13new_allocatorIN4Tins16NetworkInterfaceEED1Ev W
_ZN9__gnu_cxx13new_allocatorIN4Tins16NetworkInterfaceEED2Ev W
_ZN9__gnu_cxx13new_allocatorIN4Tins3DNS5queryEE10deallocateEPS3_m W
_ZN9__gnu_cxx13new_allocatorIN4Tins3DNS5queryEE7destroyEPS3_ W
_ZN9__gnu_cxx13new_allocatorIN4Tins3DNS5queryEE8allocateEmPKv W
_ZN9__gnu_cxx13new_allocatorIN4Tins3DNS5queryEE9constructEPS3_RKS3_ W
_ZN9__gnu_cxx13new_allocatorIN4Tins3DNS5queryEEC1Ev W
_ZN9__gnu_cxx13new_allocatorIN4Tins3DNS5queryEEC2Ev W
_ZN9__gnu_cxx13new_allocatorIN4Tins3DNS5queryEED1Ev W
_ZN9__gnu_cxx13new_allocatorIN4Tins3DNS5queryEED2Ev W
_ZN9__gnu_cxx13new_allocatorIN4Tins3DNS8resourceEE10deallocateEPS3_m W
_ZN9__gnu_cxx13new_allocatorIN4Tins3DNS8resourceEE7destroyEPS3_ W
_ZN9__gnu_cxx13new_allocatorIN4Tins3DNS8resourceEE8allocateEmPKv W
_ZN9__gnu_cxx13new_allocatorIN4Tins3DNS8resourceEE9constructEPS3_RKS3_ W
_ZN9__gnu_cxx13new_allocatorIN4Tins3DNS8resourceEEC1Ev W
_ZN9__gnu_cxx13new_allocatorIN4Tins3DNS8resourceEEC2Ev W
_ZN9__gnu_cxx13new_allocatorIN4Tins3DNS8resourceEED1Ev W
_ZN9__gnu_cxx13new_allocatorIN4Tins3DNS8resourceEED2Ev W
_ZN9__gnu_cxx13new_allocatorIN4Tins5Utils10RouteEntryEE10deallocateEPS3_m W
_ZN9__gnu_cxx13new_allocatorIN4Tins5Utils10RouteEntryEE7destroyEPS3_ W
_ZN9__gnu_cxx13new_allocatorIN4Tins5Utils10RouteEntryEE8allocateEmPKv W
_ZN9__gnu_cxx13new_allocatorIN4Tins5Utils10RouteEntryEE9constructEPS3_RKS3_ W
_ZN9__gnu_cxx13new_allocatorIN4Tins5Utils10RouteEntryEEC1Ev W
_ZN9__gnu_cxx13new_allocatorIN4Tins5Utils10RouteEntryEEC2Ev W
_ZN9__gnu_cxx13new_allocatorIN4Tins5Utils10RouteEntryEED1Ev W
_ZN9__gnu_cxx13new_allocatorIN4Tins5Utils10RouteEntryEED2Ev W
_ZN9__gnu_cxx13new_allocatorIN4Tins5Utils11Route6EntryEE10deallocateEPS3_m W
_ZN9__gnu_cxx13new_allocatorIN4Tins5Utils11Route6EntryEE7destroyEPS3_ W
_ZN9__gnu_cxx13new_allocatorIN4Tins5Utils11Route6EntryEE8allocateEmPKv W
_ZN9__gnu_cxx13new_allocatorIN4Tins5Utils11Route6EntryEE9constructEPS3_RKS3_ W
_ZN9__gnu_cxx13new_allocatorIN4Tins5Utils11Route6EntryEEC1Ev W
_ZN9__gnu_cxx13new_allocatorIN4Tins5Utils11Route6EntryEEC2Ev W
_ZN9__gnu_cxx13new_allocatorIN4Tins5Utils11Route6EntryEED1Ev W
_ZN9__gnu_cxx13new_allocatorIN4Tins5Utils11Route6EntryEED2Ev W
_ZN9__gnu_cxx13new_allocatorIN4Tins6ICMPv624multicast_address_recordEE10deallocateEPS3_m W
_ZN9__gnu_cxx13new_allocatorIN4Tins6ICMPv624multicast_address_recordEE7destroyEPS3_ W
_ZN9__gnu_cxx13new_allocatorIN4Tins6ICMPv624multicast_address_recordEE8allocateEmPKv W
_ZN9__gnu_cxx13new_allocatorIN4Tins6ICMPv624multicast_address_recordEE9constructEPS3_RKS3_ W
_ZN9__gnu_cxx13new_allocatorIN4Tins6ICMPv624multicast_address_recordEEC1ERKS4_ W
_ZN9__gnu_cxx13new_allocatorIN4Tins6ICMPv624multicast_address_recordEEC1Ev W
_ZN9__gnu_cxx13new_allocatorIN4Tins6ICMPv624multicast_address_recordEEC2ERKS4_ W
_ZN9__gnu_cxx13new_allocatorIN4Tins6ICMPv624multicast_address_recordEEC2Ev W
_ZN9__gnu_cxx13new_allocatorIN4Tins6ICMPv624multicast_address_recordEED1Ev W
_ZN9__gnu_cxx13new_allocatorIN4Tins6ICMPv624multicast_address_recordEED2Ev W
_ZN9__gnu_cxx13new_allocatorIN4Tins9Internals12IPv4FragmentEE10deallocateEPS3_m W
_ZN9__gnu_cxx13new_allocatorIN4Tins9Internals12IPv4FragmentEE7destroyEPS3_ W
_ZN9__gnu_cxx13new_allocatorIN4Tins9Internals12IPv4FragmentEE8allocateEmPKv W
_ZN9__gnu_cxx13new_allocatorIN4Tins9Internals12IPv4FragmentEE9constructEPS3_RKS3_ W
_ZN9__gnu_cxx13new_allocatorIN4Tins9Internals12IPv4FragmentEEC1ERKS4_ W
_ZN9__gnu_cxx13new_allocatorIN4Tins9Internals12IPv4FragmentEEC1Ev W
_ZN9__gnu_cxx13new_allocatorIN4Tins9Internals12IPv4FragmentEEC2ERKS4_ W
_ZN9__gnu_cxx13new_allocatorIN4Tins9Internals12IPv4FragmentEEC2Ev W
_ZN9__gnu_cxx13new_allocatorIN4Tins9Internals12IPv4FragmentEED1Ev W
_ZN9__gnu_cxx13new_allocatorIN4Tins9Internals12IPv4FragmentEED2Ev W
_ZN9__gnu_cxx13new_allocatorIN4Tins9PDUOptionIhNS1_3TCPEEEE10deallocateEPS4_m W
_ZN9__gnu_cxx13new_allocatorIN4Tins9PDUOptionIhNS1_3TCPEEEE7destroyEPS4_ W
_ZN9__gnu_cxx13new_allocatorIN4Tins9PDUOptionIhNS1_3TCPEEEE8allocateEmPKv W
_ZN9__gnu_cxx13new_allocatorIN4Tins9PDUOptionIhNS1_3TCPEEEE9constructEPS4_RKS4_ W
_ZN9__gnu_cxx13new_allocatorIN4Tins9PDUOptionIhNS1_3TCPEEEEC1ERKS5_ W
_ZN9__gnu_cxx13new_allocatorIN4Tins9PDUOptionIhNS1_3TCPEEEEC1Ev W
_ZN9__gnu_cxx13new_allocatorIN4Tins9PDUOptionIhNS1_3TCPEEEEC2ERKS5_ W
_ZN9__gnu_cxx13new_allocatorIN4Tins9PDUOptionIhNS1_3TCPEEEEC2Ev W
_ZN9__gnu_cxx13new_allocatorIN4Tins9PDUOptionIhNS1_3TCPEEEED1Ev W
_ZN9__gnu_cxx13new_allocatorIN4Tins9PDUOptionIhNS1_3TCPEEEED2Ev W
_ZN9__gnu_cxx13new_allocatorIN4Tins9PDUOptionIhNS1_4DHCPEEEE10deallocateEPS4_m W
_ZN9__gnu_cxx13new_allocatorIN4Tins9PDUOptionIhNS1_4DHCPEEEE7destroyEPS4_ W
_ZN9__gnu_cxx13new_allocatorIN4Tins9PDUOptionIhNS1_4DHCPEEEE8allocateEmPKv W
_ZN9__gnu_cxx13new_allocatorIN4Tins9PDUOptionIhNS1_4DHCPEEEE9constructEPS4_RKS4_ W
_ZN9__gnu_cxx13new_allocatorIN4Tins9PDUOptionIhNS1_4DHCPEEEEC1ERKS5_ W
_ZN9__gnu_cxx13new_allocatorIN4Tins9PDUOptionIhNS1_4DHCPEEEEC1Ev W
_ZN9__gnu_cxx13new_allocatorIN4Tins9PDUOptionIhNS1_4DHCPEEEEC2ERKS5_ W
_ZN9__gnu_cxx13new_allocatorIN4Tins9PDUOptionIhNS1_4DHCPEEEEC2Ev W
_ZN9__gnu_cxx13new_allocatorIN4Tins9PDUOptionIhNS1_4DHCPEEEED1Ev W
_ZN9__gnu_cxx13new_allocatorIN4Tins9PDUOptionIhNS1_4DHCPEEEED2Ev W
_ZN9__gnu_cxx13new_allocatorIN4Tins9PDUOptionIhNS1_4IPv6EEEE10deallocateEPS4_m W
_ZN9__gnu_cxx13new_allocatorIN4Tins9PDUOptionIhNS1_4IPv6EEEE7destroyEPS4_ W
_ZN9__gnu_cxx13new_allocatorIN4Tins9PDUOptionIhNS1_4IPv6EEEE8allocateEmPKv W
_ZN9__gnu_cxx13new_allocatorIN4Tins9PDUOptionIhNS1_4IPv6EEEE9constructEPS4_RKS4_ W
_ZN9__gnu_cxx13new_allocatorIN4Tins9PDUOptionIhNS1_4IPv6EEEEC1ERKS5_ W
_ZN9__gnu_cxx13new_allocatorIN4Tins9PDUOptionIhNS1_4IPv6EEEEC1Ev W
_ZN9__gnu_cxx13new_allocatorIN4Tins9PDUOptionIhNS1_4IPv6EEEEC2ERKS5_ W
_ZN9__gnu_cxx13new_allocatorIN4Tins9PDUOptionIhNS1_4IPv6EEEEC2Ev W
_ZN9__gnu_cxx13new_allocatorIN4Tins9PDUOptionIhNS1_4IPv6EEEED1Ev W
_ZN9__gnu_cxx13new_allocatorIN4Tins9PDUOptionIhNS1_4IPv6EEEED2Ev W
_ZN9__gnu_cxx13new_allocatorIN4Tins9PDUOptionIhNS1_6ICMPv6EEEE10deallocateEPS4_m W
_ZN9__gnu_cxx13new_allocatorIN4Tins9PDUOptionIhNS1_6ICMPv6EEEE7destroyEPS4_ W
_ZN9__gnu_cxx13new_allocatorIN4Tins9PDUOptionIhNS1_6ICMPv6EEEE8allocateEmPKv W
_ZN9__gnu_cxx13new_allocatorIN4Tins9PDUOptionIhNS1_6ICMPv6EEEE9constructEPS4_RKS4_ W
_ZN9__gnu_cxx13new_allocatorIN4Tins9PDUOptionIhNS1_6ICMPv6EEEEC1ERKS5_ W
_ZN9__gnu_cxx13new_allocatorIN4Tins9PDUOptionIhNS1_6ICMPv6EEEEC1Ev W
_ZN9__gnu_cxx13new_allocatorIN4Tins9PDUOptionIhNS1_6ICMPv6EEEEC2ERKS5_ W
_ZN9__gnu_cxx13new_allocatorIN4Tins9PDUOptionIhNS1_6ICMPv6EEEEC2Ev W
_ZN9__gnu_cxx13new_allocatorIN4Tins9PDUOptionIhNS1_6ICMPv6EEEED1Ev W
_ZN9__gnu_cxx13new_allocatorIN4Tins9PDUOptionIhNS1_6ICMPv6EEEED2Ev W
_ZN9__gnu_cxx13new_allocatorIN4Tins9PDUOptionINS1_2IP17option_identifierES3_EEE10deallocateEPS5_m W
_ZN9__gnu_cxx13new_allocatorIN4Tins9PDUOptionINS1_2IP17option_identifierES3_EEE7destroyEPS5_ W
_ZN9__gnu_cxx13new_allocatorIN4Tins9PDUOptionINS1_2IP17option_identifierES3_EEE8allocateEmPKv W
_ZN9__gnu_cxx13new_allocatorIN4Tins9PDUOptionINS1_2IP17option_identifierES3_EEE9constructEPS5_RKS5_ W
_ZN9__gnu_cxx13new_allocatorIN4Tins9PDUOptionINS1_2IP17option_identifierES3_EEEC1ERKS6_ W
_ZN9__gnu_cxx13new_allocatorIN4Tins9PDUOptionINS1_2IP17option_identifierES3_EEEC1Ev W
_ZN9__gnu_cxx13new_allocatorIN4Tins9PDUOptionINS1_2IP17option_identifierES3_EEEC2ERKS6_ W
_ZN9__gnu_cxx13new_allocatorIN4Tins9PDUOptionINS1_2IP17option_identifierES3_EEEC2Ev W
_ZN9__gnu_cxx13new_allocatorIN4Tins9PDUOptionINS1_2IP17option_identifierES3_EEED1Ev W
_ZN9__gnu_cxx13new_allocatorIN4Tins9PDUOptionINS1_2IP17option_identifierES3_EEED2Ev W
_ZN9__gnu_cxx13new_allocatorIN4Tins9PDUOptionINS1_5PPPoE8TagTypesES3_EEE10deallocateEPS5_m W
_ZN9__gnu_cxx13new_allocatorIN4Tins9PDUOptionINS1_5PPPoE8TagTypesES3_EEE7destroyEPS5_ W
_ZN9__gnu_cxx13new_allocatorIN4Tins9PDUOptionINS1_5PPPoE8TagTypesES3_EEE8allocateEmPKv W
_ZN9__gnu_cxx13new_allocatorIN4Tins9PDUOptionINS1_5PPPoE8TagTypesES3_EEE9constructEPS5_RKS5_ W
_ZN9__gnu_cxx13new_allocatorIN4Tins9PDUOptionINS1_5PPPoE8TagTypesES3_EEEC1ERKS6_ W
_ZN9__gnu_cxx13new_allocatorIN4Tins9PDUOptionINS1_5PPPoE8TagTypesES3_EEEC1Ev W
_ZN9__gnu_cxx13new_allocatorIN4Tins9PDUOptionINS1_5PPPoE8TagTypesES3_EEEC2ERKS6_ W
_ZN9__gnu_cxx13new_allocatorIN4Tins9PDUOptionINS1_5PPPoE8TagTypesES3_EEEC2Ev W
_ZN9__gnu_cxx13new_allocatorIN4Tins9PDUOptionINS1_5PPPoE8TagTypesES3_EEED1Ev W
_ZN9__gnu_cxx13new_allocatorIN4Tins9PDUOptionINS1_5PPPoE8TagTypesES3_EEED2Ev W
_ZN9__gnu_cxx13new_allocatorIN4Tins9PDUOptionItNS1_6DHCPv6EEEE10deallocateEPS4_m W
_ZN9__gnu_cxx13new_allocatorIN4Tins9PDUOptionItNS1_6DHCPv6EEEE7destroyEPS4_ W
_ZN9__gnu_cxx13new_allocatorIN4Tins9PDUOptionItNS1_6DHCPv6EEEE8allocateEmPKv W
_ZN9__gnu_cxx13new_allocatorIN4Tins9PDUOptionItNS1_6DHCPv6EEEE9constructEPS4_RKS4_ W
_ZN9__gnu_cxx13new_allocatorIN4Tins9PDUOptionItNS1_6DHCPv6EEEEC1ERKS5_ W
_ZN9__gnu_cxx13new_allocatorIN4Tins9PDUOptionItNS1_6DHCPv6EEEEC1Ev W
_ZN9__gnu_cxx13new_allocatorIN4Tins9PDUOptionItNS1_6DHCPv6EEEEC2ERKS5_ W
_ZN9__gnu_cxx13new_allocatorIN4Tins9PDUOptionItNS1_6DHCPv6EEEEC2Ev W
_ZN9__gnu_cxx13new_allocatorIN4Tins9PDUOptionItNS1_6DHCPv6EEEED1Ev W
_ZN9__gnu_cxx13new_allocatorIN4Tins9PDUOptionItNS1_6DHCPv6EEEED2Ev W
_ZN9__gnu_cxx13new_allocatorISsE10deallocateEPSsm W
_ZN9__gnu_cxx13new_allocatorISsE7destroyEPSs W
_ZN9__gnu_cxx13new_allocatorISsE8allocateEmPKv W
_ZN9__gnu_cxx13new_allocatorISsE9constructEPSsRKSs W
_ZN9__gnu_cxx13new_allocatorISsEC1ERKS1_ W
_ZN9__gnu_cxx13new_allocatorISsEC1Ev W
_ZN9__gnu_cxx13new_allocatorISsEC2ERKS1_ W
_ZN9__gnu_cxx13new_allocatorISsEC2Ev W
_ZN9__gnu_cxx13new_allocatorISsED1Ev W
_ZN9__gnu_cxx13new_allocatorISsED2Ev W
_ZN9__gnu_cxx13new_allocatorISt13_Rb_tree_nodeISsEE10deallocateEPS2_m W
_ZN9__gnu_cxx13new_allocatorISt13_Rb_tree_nodeISsEE8allocateEmPKv W
_ZN9__gnu_cxx13new_allocatorISt13_Rb_tree_nodeISsEEC1Ev W
_ZN9__gnu_cxx13new_allocatorISt13_Rb_tree_nodeISsEEC2Ev W
_ZN9__gnu_cxx13new_allocatorISt13_Rb_tree_nodeISsEED1Ev W
_ZN9__gnu_cxx13new_allocatorISt13_Rb_tree_nodeISsEED2Ev W
_ZN9__gnu_cxx13new_allocatorISt13_Rb_tree_nodeISt4pairIKhPFPN4Tins3PDUEPS3_jEEEE10deallocateEPSB_m W
_ZN9__gnu_cxx13new_allocatorISt13_Rb_tree_nodeISt4pairIKhPFPN4Tins3PDUEPS3_jEEEEC1Ev W
_ZN9__gnu_cxx13new_allocatorISt13_Rb_tree_nodeISt4pairIKhPFPN4Tins3PDUEPS3_jEEEEC2Ev W
_ZN9__gnu_cxx13new_allocatorISt13_Rb_tree_nodeISt4pairIKhPFPN4Tins3PDUEPS3_jEEEED1Ev W
_ZN9__gnu_cxx13new_allocatorISt13_Rb_tree_nodeISt4pairIKhPFPN4Tins3PDUEPS3_jEEEED2Ev W
_ZN9__gnu_cxx13new_allocatorISt13_Rb_tree_nodeISt4pairIKN4Tins12PacketSender10SocketTypeEiEEE10deallocateEPS8_m W
_ZN9__gnu_cxx13new_allocatorISt13_Rb_tree_nodeISt4pairIKN4Tins12PacketSender10SocketTypeEiEEE8allocateEmPKv W
_ZN9__gnu_cxx13new_allocatorISt13_Rb_tree_nodeISt4pairIKN4Tins12PacketSender10SocketTypeEiEEEC1Ev W
_ZN9__gnu_cxx13new_allocatorISt13_Rb_tree_nodeISt4pairIKN4Tins12PacketSender10SocketTypeEiEEEC2Ev W
_ZN9__gnu_cxx13new_allocatorISt13_Rb_tree_nodeISt4pairIKN4Tins12PacketSender10SocketTypeEiEEED1Ev W
_ZN9__gnu_cxx13new_allocatorISt13_Rb_tree_nodeISt4pairIKN4Tins12PacketSender10SocketTypeEiEEED2Ev W
_ZN9__gnu_cxx13new_allocatorISt13_Rb_tree_nodeISt4pairIKN4Tins3PDU7PDUTypeEhEEE10deallocateEPS8_m W
_ZN9__gnu_cxx13new_allocatorISt13_Rb_tree_nodeISt4pairIKN4Tins3PDU7PDUTypeEhEEEC1Ev W
_ZN9__gnu_cxx13new_allocatorISt13_Rb_tree_nodeISt4pairIKN4Tins3PDU7PDUTypeEhEEEC2Ev W
_ZN9__gnu_cxx13new_allocatorISt13_Rb_tree_nodeISt4pairIKN4Tins3PDU7PDUTypeEhEEED1Ev W
_ZN9__gnu_cxx13new_allocatorISt13_Rb_tree_nodeISt4pairIKN4Tins3PDU7PDUTypeEhEEED2Ev W
_ZN9__gnu_cxx13new_allocatorISt13_Rb_tree_nodeISt4pairIKN4Tins3PDU7PDUTypeEtEEE10deallocateEPS8_m W
_ZN9__gnu_cxx13new_allocatorISt13_Rb_tree_nodeISt4pairIKN4Tins3PDU7PDUTypeEtEEEC1Ev W
_ZN9__gnu_cxx13new_allocatorISt13_Rb_tree_nodeISt4pairIKN4Tins3PDU7PDUTypeEtEEEC2Ev W
_ZN9__gnu_cxx13new_allocatorISt13_Rb_tree_nodeISt4pairIKN4Tins3PDU7PDUTypeEtEEED1Ev W
_ZN9__gnu_cxx13new_allocatorISt13_Rb_tree_nodeISt4pairIKN4Tins3PDU7PDUTypeEtEEED2Ev W
_ZN9__gnu_cxx13new_allocatorISt13_Rb_tree_nodeISt4pairIKS2_ItS2_IN4Tins11IPv4AddressES4_EENS3_9Internals10IPv4StreamEEEE10deallocateEPSB_m W
_ZN9__gnu_cxx13new_allocatorISt13_Rb_tree_nodeISt4pairIKS2_ItS2_IN4Tins11IPv4AddressES4_EENS3_9Internals10IPv4StreamEEEE8allocateEmPKv W
_ZN9__gnu_cxx13new_allocatorISt13_Rb_tree_nodeISt4pairIKS2_ItS2_IN4Tins11IPv4AddressES4_EENS3_9Internals10IPv4StreamEEEEC1Ev W
_ZN9__gnu_cxx13new_allocatorISt13_Rb_tree_nodeISt4pairIKS2_ItS2_IN4Tins11IPv4AddressES4_EENS3_9Internals10IPv4StreamEEEEC2Ev W
_ZN9__gnu_cxx13new_allocatorISt13_Rb_tree_nodeISt4pairIKS2_ItS2_IN4Tins11IPv4AddressES4_EENS3_9Internals10IPv4StreamEEEED1Ev W
_ZN9__gnu_cxx13new_allocatorISt13_Rb_tree_nodeISt4pairIKS2_ItS2_IN4Tins11IPv4AddressES4_EENS3_9Internals10IPv4StreamEEEED2Ev W
_ZN9__gnu_cxx13new_allocatorISt13_Rb_tree_nodeISt4pairIKtPFPN4Tins3PDUEPKhjEEEE10deallocateEPSC_m W
_ZN9__gnu_cxx13new_allocatorISt13_Rb_tree_nodeISt4pairIKtPFPN4Tins3PDUEPKhjEEEEC1Ev W
_ZN9__gnu_cxx13new_allocatorISt13_Rb_tree_nodeISt4pairIKtPFPN4Tins3PDUEPKhjEEEEC2Ev W
_ZN9__gnu_cxx13new_allocatorISt13_Rb_tree_nodeISt4pairIKtPFPN4Tins3PDUEPKhjEEEED1Ev W
_ZN9__gnu_cxx13new_allocatorISt13_Rb_tree_nodeISt4pairIKtPFPN4Tins3PDUEPKhjEEEED2Ev W
_ZN9__gnu_cxx13new_allocatorISt4pairIhhEE10deallocateEPS2_m W
_ZN9__gnu_cxx13new_allocatorISt4pairIhhEE7destroyEPS2_ W
_ZN9__gnu_cxx13new_allocatorISt4pairIhhEE8allocateEmPKv W
_ZN9__gnu_cxx13new_allocatorISt4pairIhhEE9constructEPS2_RKS2_ W
_ZN9__gnu_cxx13new_allocatorISt4pairIhhEEC1Ev W
_ZN9__gnu_cxx13new_allocatorISt4pairIhhEEC2Ev W
_ZN9__gnu_cxx13new_allocatorISt4pairIhhEED1Ev W
_ZN9__gnu_cxx13new_allocatorISt4pairIhhEED2Ev W
_ZN9__gnu_cxx13new_allocatorISt4pairIhSt6vectorIhSaIhEEEE10deallocateEPS5_m W
_ZN9__gnu_cxx13new_allocatorISt4pairIhSt6vectorIhSaIhEEEE7destroyEPS5_ W
_ZN9__gnu_cxx13new_allocatorISt4pairIhSt6vectorIhSaIhEEEE8allocateEmPKv W
_ZN9__gnu_cxx13new_allocatorISt4pairIhSt6vectorIhSaIhEEEE9constructEPS5_RKS5_ W
_ZN9__gnu_cxx13new_allocatorISt4pairIhSt6vectorIhSaIhEEEEC1Ev W
_ZN9__gnu_cxx13new_allocatorISt4pairIhSt6vectorIhSaIhEEEEC2Ev W
_ZN9__gnu_cxx13new_allocatorISt4pairIhSt6vectorIhSaIhEEEED1Ev W
_ZN9__gnu_cxx13new_allocatorISt4pairIhSt6vectorIhSaIhEEEED2Ev W
_ZN9__gnu_cxx13new_allocatorISt4pairIKhPFPN4Tins3PDUEPS2_jEEE7destroyEPS9_ W
_ZN9__gnu_cxx13new_allocatorISt4pairIKhPFPN4Tins3PDUEPS2_jEEEC1Ev W
_ZN9__gnu_cxx13new_allocatorISt4pairIKhPFPN4Tins3PDUEPS2_jEEEC2Ev W
_ZN9__gnu_cxx13new_allocatorISt4pairIKhPFPN4Tins3PDUEPS2_jEEED1Ev W
_ZN9__gnu_cxx13new_allocatorISt4pairIKhPFPN4Tins3PDUEPS2_jEEED2Ev W
_ZN9__gnu_cxx13new_allocatorISt4pairIKN4Tins12PacketSender10SocketTypeEiEE7destroyEPS6_ W
_ZN9__gnu_cxx13new_allocatorISt4pairIKN4Tins12PacketSender10SocketTypeEiEE9constructEPS6_RKS6_ W
_ZN9__gnu_cxx13new_allocatorISt4pairIKN4Tins12PacketSender10SocketTypeEiEEC1Ev W
_ZN9__gnu_cxx13new_allocatorISt4pairIKN4Tins12PacketSender10SocketTypeEiEEC2Ev W
_ZN9__gnu_cxx13new_allocatorISt4pairIKN4Tins12PacketSender10SocketTypeEiEED1Ev W
_ZN9__gnu_cxx13new_allocatorISt4pairIKN4Tins12PacketSender10SocketTypeEiEED2Ev W
_ZN9__gnu_cxx13new_allocatorISt4pairIKN4Tins3PDU7PDUTypeEhEE7destroyEPS6_ W
_ZN9__gnu_cxx13new_allocatorISt4pairIKN4Tins3PDU7PDUTypeEhEEC1Ev W
_ZN9__gnu_cxx13new_allocatorISt4pairIKN4Tins3PDU7PDUTypeEhEEC2Ev W
_ZN9__gnu_cxx13new_allocatorISt4pairIKN4Tins3PDU7PDUTypeEhEED1Ev W
_ZN9__gnu_cxx13new_allocatorISt4pairIKN4Tins3PDU7PDUTypeEhEED2Ev W
_ZN9__gnu_cxx13new_allocatorISt4pairIKN4Tins3PDU7PDUTypeEtEE7destroyEPS6_ W
_ZN9__gnu_cxx13new_allocatorISt4pairIKN4Tins3PDU7PDUTypeEtEEC1Ev W
_ZN9__gnu_cxx13new_allocatorISt4pairIKN4Tins3PDU7PDUTypeEtEEC2Ev W
_ZN9__gnu_cxx13new_allocatorISt4pairIKN4Tins3PDU7PDUTypeEtEED1Ev W
_ZN9__gnu_cxx13new_allocatorISt4pairIKN4Tins3PDU7PDUTypeEtEED2Ev W
_ZN9__gnu_cxx13new_allocatorISt4pairIKS1_ItS1_IN4Tins11IPv4AddressES3_EENS2_9Internals10IPv4StreamEEE7destroyEPS9_ W
_ZN9__gnu_cxx13new_allocatorISt4pairIKS1_ItS1_IN4Tins11IPv4AddressES3_EENS2_9Internals10IPv4StreamEEE9constructEPS9_RKS9_ W
_ZN9__gnu_cxx13new_allocatorISt4pairIKS1_ItS1_IN4Tins11IPv4AddressES3_EENS2_9Internals10IPv4StreamEEEC1Ev W
_ZN9__gnu_cxx13new_allocatorISt4pairIKS1_ItS1_IN4Tins11IPv4AddressES3_EENS2_9Internals10IPv4StreamEEEC2Ev W
_ZN9__gnu_cxx13new_allocatorISt4pairIKS1_ItS1_IN4Tins11IPv4AddressES3_EENS2_9Internals10IPv4StreamEEED1Ev W
_ZN9__gnu_cxx13new_allocatorISt4pairIKS1_ItS1_IN4Tins11IPv4AddressES3_EENS2_9Internals10IPv4StreamEEED2Ev W
_ZN9__gnu_cxx13new_allocatorISt4pairIKtPFPN4Tins3PDUEPKhjEEE7destroyEPSA_ W
_ZN9__gnu_cxx13new_allocatorISt4pairIKtPFPN4Tins3PDUEPKhjEEEC1Ev W
_ZN9__gnu_cxx13new_allocatorISt4pairIKtPFPN4Tins3PDUEPKhjEEEC2Ev W
_ZN9__gnu_cxx13new_allocatorISt4pairIKtPFPN4Tins3PDUEPKhjEEED1Ev W
_ZN9__gnu_cxx13new_allocatorISt4pairIKtPFPN4Tins3PDUEPKhjEEED2Ev W
_ZN9__gnu_cxx13new_allocatorISt4pairIPjjEE10deallocateEPS3_m W
_ZN9__gnu_cxx13new_allocatorISt4pairIPjjEE7destroyEPS3_ W
_ZN9__gnu_cxx13new_allocatorISt4pairIPjjEE8allocateEmPKv W
_ZN9__gnu_cxx13new_allocatorISt4pairIPjjEE9constructEPS3_RKS3_ W
_ZN9__gnu_cxx13new_allocatorISt4pairIPjjEEC1Ev W
_ZN9__gnu_cxx13new_allocatorISt4pairIPjjEEC2Ev W
_ZN9__gnu_cxx13new_allocatorISt4pairIPjjEED1Ev W
_ZN9__gnu_cxx13new_allocatorISt4pairIPjjEED2Ev W
_ZN9__gnu_cxx13new_allocatorISt6vectorIhSaIhEEE10deallocateEPS3_m W
_ZN9__gnu_cxx13new_allocatorISt6vectorIhSaIhEEE7destroyEPS3_ W
_ZN9__gnu_cxx13new_allocatorISt6vectorIhSaIhEEE8allocateEmPKv W
_ZN9__gnu_cxx13new_allocatorISt6vectorIhSaIhEEE9constructEPS3_RKS3_ W
_ZN9__gnu_cxx13new_allocatorISt6vectorIhSaIhEEEC1ERKS4_ W
_ZN9__gnu_cxx13new_allocatorISt6vectorIhSaIhEEEC1Ev W
_ZN9__gnu_cxx13new_allocatorISt6vectorIhSaIhEEEC2ERKS4_ W
_ZN9__gnu_cxx13new_allocatorISt6vectorIhSaIhEEEC2Ev W
_ZN9__gnu_cxx13new_allocatorISt6vectorIhSaIhEEED1Ev W
_ZN9__gnu_cxx13new_allocatorISt6vectorIhSaIhEEED2Ev W
_ZN9__gnu_cxx13new_allocatorItE10deallocateEPtm W
_ZN9__gnu_cxx13new_allocatorItE8allocateEmPKv W
_ZN9__gnu_cxx13new_allocatorItEC1ERKS1_ W
_ZN9__gnu_cxx13new_allocatorItEC1Ev W
_ZN9__gnu_cxx13new_allocatorItEC2ERKS1_ W
_ZN9__gnu_cxx13new_allocatorItEC2Ev W
_ZN9__gnu_cxx13new_allocatorItED1Ev W
_ZN9__gnu_cxx13new_allocatorItED2Ev W
_ZN9__gnu_cxx14__alloc_traitsISaIfEE7destroyERS1_Pf W
_ZN9__gnu_cxx14__alloc_traitsISaIfEE8max_sizeERKS1_ W
_ZN9__gnu_cxx14__alloc_traitsISaIfEE9constructIfEEvRS1_PfRKT_ W
_ZN9__gnu_cxx14__alloc_traitsISaIhEE17_S_select_on_copyERKS1_ W
_ZN9__gnu_cxx14__alloc_traitsISaIhEE7destroyERS1_Ph W
_ZN9__gnu_cxx14__alloc_traitsISaIhEE8max_sizeERKS1_ W
_ZN9__gnu_cxx14__alloc_traitsISaIhEE9constructIhEEvRS1_PhRKT_ W
_ZN9__gnu_cxx14__alloc_traitsISaIiEE7destroyERS1_Pi W
_ZN9__gnu_cxx14__alloc_traitsISaIiEE8max_sizeERKS1_ W
_ZN9__gnu_cxx14__alloc_traitsISaIiEE9constructIiEEvRS1_PiRKT_ W
_ZN9__gnu_cxx14__alloc_traitsISaIN4Tins11IPv4AddressEEE17_S_select_on_copyERKS3_ W
_ZN9__gnu_cxx14__alloc_traitsISaIN4Tins11IPv4AddressEEE7destroyERS3_PS2_ W
_ZN9__gnu_cxx14__alloc_traitsISaIN4Tins11IPv4AddressEEE8max_sizeERKS3_ W
_ZN9__gnu_cxx14__alloc_traitsISaIN4Tins11IPv4AddressEEE9constructIS2_EEvRS3_PS2_RKT_ W
_ZN9__gnu_cxx14__alloc_traitsISaIN4Tins11IPv6AddressEEE17_S_select_on_copyERKS3_ W
_ZN9__gnu_cxx14__alloc_traitsISaIN4Tins11IPv6AddressEEE7destroyERS3_PS2_ W
_ZN9__gnu_cxx14__alloc_traitsISaIN4Tins11IPv6AddressEEE8max_sizeERKS3_ W
_ZN9__gnu_cxx14__alloc_traitsISaIN4Tins11IPv6AddressEEE9constructIS2_EEvRS3_PS2_RKT_ W
_ZN9__gnu_cxx14__alloc_traitsISaIN4Tins13ICMPExtensionEEE17_S_select_on_copyERKS3_ W
_ZN9__gnu_cxx14__alloc_traitsISaIN4Tins13ICMPExtensionEEE7destroyERS3_PS2_ W
_ZN9__gnu_cxx14__alloc_traitsISaIN4Tins13ICMPExtensionEEE8max_sizeERKS3_ W
_ZN9__gnu_cxx14__alloc_traitsISaIN4Tins13ICMPExtensionEEE9constructIS2_EEvRS3_PS2_RKT_ W
_ZN9__gnu_cxx14__alloc_traitsISaIN4Tins16NetworkInterface10IPv6PrefixEEE17_S_select_on_copyERKS4_ W
_ZN9__gnu_cxx14__alloc_traitsISaIN4Tins16NetworkInterface10IPv6PrefixEEE7destroyERS4_PS3_ W
_ZN9__gnu_cxx14__alloc_traitsISaIN4Tins16NetworkInterface10IPv6PrefixEEE8max_sizeERKS4_ W
_ZN9__gnu_cxx14__alloc_traitsISaIN4Tins16NetworkInterface10IPv6PrefixEEE9constructIS3_EEvRS4_PS3_RKT_ W
_ZN9__gnu_cxx14__alloc_traitsISaIN4Tins16NetworkInterfaceEEE7destroyERS3_PS2_ W
_ZN9__gnu_cxx14__alloc_traitsISaIN4Tins16NetworkInterfaceEEE8max_sizeERKS3_ W
_ZN9__gnu_cxx14__alloc_traitsISaIN4Tins16NetworkInterfaceEEE9constructIS2_EEvRS3_PS2_RKT_ W
_ZN9__gnu_cxx14__alloc_traitsISaIN4Tins3DNS5queryEEE7destroyERS4_PS3_ W
_ZN9__gnu_cxx14__alloc_traitsISaIN4Tins3DNS5queryEEE8max_sizeERKS4_ W
_ZN9__gnu_cxx14__alloc_traitsISaIN4Tins3DNS5queryEEE9constructIS3_EEvRS4_PS3_RKT_ W
_ZN9__gnu_cxx14__alloc_traitsISaIN4Tins3DNS8resourceEEE7destroyERS4_PS3_ W
_ZN9__gnu_cxx14__alloc_traitsISaIN4Tins3DNS8resourceEEE8max_sizeERKS4_ W
_ZN9__gnu_cxx14__alloc_traitsISaIN4Tins3DNS8resourceEEE9constructIS3_EEvRS4_PS3_RKT_ W
_ZN9__gnu_cxx14__alloc_traitsISaIN4Tins5Utils10RouteEntryEEE7destroyERS4_PS3_ W
_ZN9__gnu_cxx14__alloc_traitsISaIN4Tins5Utils10RouteEntryEEE8max_sizeERKS4_ W
_ZN9__gnu_cxx14__alloc_traitsISaIN4Tins5Utils10RouteEntryEEE9constructIS3_EEvRS4_PS3_RKT_ W
_ZN9__gnu_cxx14__alloc_traitsISaIN4Tins5Utils11Route6EntryEEE7destroyERS4_PS3_ W
_ZN9__gnu_cxx14__alloc_traitsISaIN4Tins5Utils11Route6EntryEEE8max_sizeERKS4_ W
_ZN9__gnu_cxx14__alloc_traitsISaIN4Tins5Utils11Route6EntryEEE9constructIS3_EEvRS4_PS3_RKT_ W
_ZN9__gnu_cxx14__alloc_traitsISaIN4Tins6ICMPv624multicast_address_recordEEE17_S_select_on_copyERKS4_ W
_ZN9__gnu_cxx14__alloc_traitsISaIN4Tins6ICMPv624multicast_address_recordEEE7destroyERS4_PS3_ W
_ZN9__gnu_cxx14__alloc_traitsISaIN4Tins6ICMPv624multicast_address_recordEEE8max_sizeERKS4_ W
_ZN9__gnu_cxx14__alloc_traitsISaIN4Tins6ICMPv624multicast_address_recordEEE9constructIS3_EEvRS4_PS3_RKT_ W
_ZN9__gnu_cxx14__alloc_traitsISaIN4Tins9Internals12IPv4FragmentEEE17_S_select_on_copyERKS4_ W
_ZN9__gnu_cxx14__alloc_traitsISaIN4Tins9Internals12IPv4FragmentEEE7destroyERS4_PS3_ W
_ZN9__gnu_cxx14__alloc_traitsISaIN4Tins9Internals12IPv4FragmentEEE8max_sizeERKS4_ W
_ZN9__gnu_cxx14__alloc_traitsISaIN4Tins9Internals12IPv4FragmentEEE9constructIS3_EEvRS4_PS3_RKT_ W
_ZN9__gnu_cxx14__alloc_traitsISaIN4Tins9PDUOptionIhNS1_3TCPEEEEE17_S_select_on_copyERKS5_ W
_ZN9__gnu_cxx14__alloc_traitsISaIN4Tins9PDUOptionIhNS1_3TCPEEEEE7destroyERS5_PS4_ W
_ZN9__gnu_cxx14__alloc_traitsISaIN4Tins9PDUOptionIhNS1_3TCPEEEEE8max_sizeERKS5_ W
_ZN9__gnu_cxx14__alloc_traitsISaIN4Tins9PDUOptionIhNS1_3TCPEEEEE9constructIS4_EEvRS5_PS4_RKT_ W
_ZN9__gnu_cxx14__alloc_traitsISaIN4Tins9PDUOptionIhNS1_4DHCPEEEEE17_S_select_on_copyERKS5_ W
_ZN9__gnu_cxx14__alloc_traitsISaIN4Tins9PDUOptionIhNS1_4DHCPEEEEE7destroyERS5_PS4_ W
_ZN9__gnu_cxx14__alloc_traitsISaIN4Tins9PDUOptionIhNS1_4DHCPEEEEE8max_sizeERKS5_ W
_ZN9__gnu_cxx14__alloc_traitsISaIN4Tins9PDUOptionIhNS1_4DHCPEEEEE9constructIS4_EEvRS5_PS4_RKT_ W
_ZN9__gnu_cxx14__alloc_traitsISaIN4Tins9PDUOptionIhNS1_4IPv6EEEEE17_S_select_on_copyERKS5_ W
_ZN9__gnu_cxx14__alloc_traitsISaIN4Tins9PDUOptionIhNS1_4IPv6EEEEE7destroyERS5_PS4_ W
_ZN9__gnu_cxx14__alloc_traitsISaIN4Tins9PDUOptionIhNS1_4IPv6EEEEE8max_sizeERKS5_ W
_ZN9__gnu_cxx14__alloc_traitsISaIN4Tins9PDUOptionIhNS1_4IPv6EEEEE9constructIS4_EEvRS5_PS4_RKT_ W
_ZN9__gnu_cxx14__alloc_traitsISaIN4Tins9PDUOptionIhNS1_6ICMPv6EEEEE17_S_select_on_copyERKS5_ W
_ZN9__gnu_cxx14__alloc_traitsISaIN4Tins9PDUOptionIhNS1_6ICMPv6EEEEE7destroyERS5_PS4_ W
_ZN9__gnu_cxx14__alloc_traitsISaIN4Tins9PDUOptionIhNS1_6ICMPv6EEEEE8max_sizeERKS5_ W
_ZN9__gnu_cxx14__alloc_traitsISaIN4Tins9PDUOptionIhNS1_6ICMPv6EEEEE9constructIS4_EEvRS5_PS4_RKT_ W
_ZN9__gnu_cxx14__alloc_traitsISaIN4Tins9PDUOptionINS1_2IP17option_identifierES3_EEEE17_S_select_on_copyERKS6_ W
_ZN9__gnu_cxx14__alloc_traitsISaIN4Tins9PDUOptionINS1_2IP17option_identifierES3_EEEE7destroyERS6_PS5_ W
_ZN9__gnu_cxx14__alloc_traitsISaIN4Tins9PDUOptionINS1_2IP17option_identifierES3_EEEE8max_sizeERKS6_ W
_ZN9__gnu_cxx14__alloc_traitsISaIN4Tins9PDUOptionINS1_2IP17option_identifierES3_EEEE9constructIS5_EEvRS6_PS5_RKT_ W
_ZN9__gnu_cxx14__alloc_traitsISaIN4Tins9PDUOptionINS1_5PPPoE8TagTypesES3_EEEE17_S_select_on_copyERKS6_ W
_ZN9__gnu_cxx14__alloc_traitsISaIN4Tins9PDUOptionINS1_5PPPoE8TagTypesES3_EEEE7destroyERS6_PS5_ W
_ZN9__gnu_cxx14__alloc_traitsISaIN4Tins9PDUOptionINS1_5PPPoE8TagTypesES3_EEEE8max_sizeERKS6_ W
_ZN9__gnu_cxx14__alloc_traitsISaIN4Tins9PDUOptionINS1_5PPPoE8TagTypesES3_EEEE9constructIS5_EEvRS6_PS5_RKT_ W
_ZN9__gnu_cxx14__alloc_traitsISaIN4Tins9PDUOptionItNS1_6DHCPv6EEEEE17_S_select_on_copyERKS5_ W
_ZN9__gnu_cxx14__alloc_traitsISaIN4Tins9PDUOptionItNS1_6DHCPv6EEEEE7destroyERS5_PS4_ W
_ZN9__gnu_cxx14__alloc_traitsISaIN4Tins9PDUOptionItNS1_6DHCPv6EEEEE8max_sizeERKS5_ W
_ZN9__gnu_cxx14__alloc_traitsISaIN4Tins9PDUOptionItNS1_6DHCPv6EEEEE9constructIS4_EEvRS5_PS4_RKT_ W
_ZN9__gnu_cxx14__alloc_traitsISaISsEE17_S_select_on_copyERKS1_ W
_ZN9__gnu_cxx14__alloc_traitsISaISsEE7destroyERS1_PSs W
_ZN9__gnu_cxx14__alloc_traitsISaISsEE8max_sizeERKS1_ W
_ZN9__gnu_cxx14__alloc_traitsISaISsEE9constructISsEEvRS1_PSsRKT_ W
_ZN9__gnu_cxx14__alloc_traitsISaISt4pairIhhEEE7destroyERS3_PS2_ W
_ZN9__gnu_cxx14__alloc_traitsISaISt4pairIhhEEE8max_sizeERKS3_ W
_ZN9__gnu_cxx14__alloc_traitsISaISt4pairIhhEEE9constructIS2_EEvRS3_PS2_RKT_ W
_ZN9__gnu_cxx14__alloc_traitsISaISt4pairIhSt6vectorIhSaIhEEEEE7destroyERS6_PS5_ W
_ZN9__gnu_cxx14__alloc_traitsISaISt4pairIhSt6vectorIhSaIhEEEEE8max_sizeERKS6_ W
_ZN9__gnu_cxx14__alloc_traitsISaISt4pairIhSt6vectorIhSaIhEEEEE9constructIS5_EEvRS6_PS5_RKT_ W
_ZN9__gnu_cxx14__alloc_traitsISaISt4pairIPjjEEE7destroyERS4_PS3_ W
_ZN9__gnu_cxx14__alloc_traitsISaISt4pairIPjjEEE8max_sizeERKS4_ W
_ZN9__gnu_cxx14__alloc_traitsISaISt4pairIPjjEEE9constructIS3_EEvRS4_PS3_RKT_ W
_ZN9__gnu_cxx14__alloc_traitsISaISt6vectorIhSaIhEEEE17_S_select_on_copyERKS4_ W
_ZN9__gnu_cxx14__alloc_traitsISaISt6vectorIhSaIhEEEE7destroyERS4_PS3_ W
_ZN9__gnu_cxx14__alloc_traitsISaISt6vectorIhSaIhEEEE8max_sizeERKS4_ W
_ZN9__gnu_cxx14__alloc_traitsISaISt6vectorIhSaIhEEEE9constructIS3_EEvRS4_PS3_RKT_ W
_ZN9__gnu_cxx17__is_null_pointerIKhEEbPT_ W
_ZN9__gnu_cxx17__is_null_pointerINS_17__normal_iteratorIPcSsEEEEbT_ W
_ZN9__gnu_cxx17__normal_iteratorIPcSsEpLERKl W
_ZN9__gnu_cxx17__normal_iteratorIPcSsEppEv W
_ZN9__gnu_cxx17__normal_iteratorIPfSt6vectorIfSaIfEEEC1ERKS1_ W
_ZN9__gnu_cxx17__normal_iteratorIPfSt6vectorIfSaIfEEEC2ERKS1_ W
_ZN9__gnu_cxx17__normal_iteratorIPhSt6vectorIhSaIhEEEC1ERKS1_ W
_ZN9__gnu_cxx17__normal_iteratorIPhSt6vectorIhSaIhEEEC2ERKS1_ W
_ZN9__gnu_cxx17__normal_iteratorIPhSt6vectorIhSaIhEEEppEi W
_ZN9__gnu_cxx17__normal_iteratorIPhSt6vectorIhSaIhEEEppEv W
_ZN9__gnu_cxx17__normal_iteratorIPiSt6vectorIiSaIiEEEC1ERKS1_ W
_ZN9__gnu_cxx17__normal_iteratorIPiSt6vectorIiSaIiEEEC2ERKS1_ W
_ZN9__gnu_cxx17__normal_iteratorIPjSt6vectorIjSaIjEEEC1ERKS1_ W
_ZN9__gnu_cxx17__normal_iteratorIPjSt6vectorIjSaIjEEEC2ERKS1_ W
_ZN9__gnu_cxx17__normal_iteratorIPjSt6vectorIjSaIjEEEppEi W
_ZN9__gnu_cxx17__normal_iteratorIPKcSsEC1ERKS2_ W
_ZN9__gnu_cxx17__normal_iteratorIPKcSsEC2ERKS2_ W
_ZN9__gnu_cxx17__normal_iteratorIPKcSsEpLERKl W
_ZN9__gnu_cxx17__normal_iteratorIPKcSsEppEv W
_ZN9__gnu_cxx17__normal_iteratorIPKhSt6vectorIhSaIhEEEC1ERKS2_ W
_ZN9__gnu_cxx17__normal_iteratorIPKhSt6vectorIhSaIhEEEC2ERKS2_ W
_ZN9__gnu_cxx17__normal_iteratorIPKhSt6vectorIhSaIhEEEpLERKl W
_ZN9__gnu_cxx17__normal_iteratorIPKhSt6vectorIhSaIhEEEppEv W
_ZN9__gnu_cxx17__normal_iteratorIPKiSt6vectorIiSaIiEEEC1ERKS2_ W
_ZN9__gnu_cxx17__normal_iteratorIPKiSt6vectorIiSaIiEEEC2ERKS2_ W
_ZN9__gnu_cxx17__normal_iteratorIPKiSt6vectorIiSaIiEEEppEv W
_ZN9__gnu_cxx17__normal_iteratorIPKjSt6vectorIjSaIjEEEC1ERKS2_ W
_ZN9__gnu_cxx17__normal_iteratorIPKjSt6vectorIjSaIjEEEC2ERKS2_ W
_ZN9__gnu_cxx17__normal_iteratorIPKjSt6vectorIjSaIjEEEppEv W
_ZN9__gnu_cxx17__normal_iteratorIPKN4Tins11IPv4AddressESt6vectorIS2_SaIS2_EEEC1ERKS4_ W
_ZN9__gnu_cxx17__normal_iteratorIPKN4Tins11IPv4AddressESt6vectorIS2_SaIS2_EEEC2ERKS4_ W
_ZN9__gnu_cxx17__normal_iteratorIPKN4Tins11IPv4AddressESt6vectorIS2_SaIS2_EEEppEv W
_ZN9__gnu_cxx17__normal_iteratorIPKN4Tins11IPv6AddressESt6vectorIS2_SaIS2_EEEC1ERKS4_ W
_ZN9__gnu_cxx17__normal_iteratorIPKN4Tins11IPv6AddressESt6vectorIS2_SaIS2_EEEC1IPS2_EERKNS0_IT_NS_11__enable_ifIXsrSt10__are_sameISB_SA_E7__valueES7_E6__typeEEE W
_ZN9__gnu_cxx17__normal_iteratorIPKN4Tins11IPv6AddressESt6vectorIS2_SaIS2_EEEC2ERKS4_ W
_ZN9__gnu_cxx17__normal_iteratorIPKN4Tins11IPv6AddressESt6vectorIS2_SaIS2_EEEC2IPS2_EERKNS0_IT_NS_11__enable_ifIXsrSt10__are_sameISB_SA_E7__valueES7_E6__typeEEE W
_ZN9__gnu_cxx17__normal_iteratorIPKN4Tins11IPv6AddressESt6vectorIS2_SaIS2_EEEppEv W
_ZN9__gnu_cxx17__normal_iteratorIPKN4Tins13ICMPExtensionESt6vectorIS2_SaIS2_EEEC1ERKS4_ W
_ZN9__gnu_cxx17__normal_iteratorIPKN4Tins13ICMPExtensionESt6vectorIS2_SaIS2_EEEC1IPS2_EERKNS0_IT_NS_11__enable_ifIXsrSt10__are_sameISB_SA_E7__valueES7_E6__typeEEE W
_ZN9__gnu_cxx17__normal_iteratorIPKN4Tins13ICMPExtensionESt6vectorIS2_SaIS2_EEEC2ERKS4_ W
_ZN9__gnu_cxx17__normal_iteratorIPKN4Tins13ICMPExtensionESt6vectorIS2_SaIS2_EEEC2IPS2_EERKNS0_IT_NS_11__enable_ifIXsrSt10__are_sameISB_SA_E7__valueES7_E6__typeEEE W
_ZN9__gnu_cxx17__normal_iteratorIPKN4Tins13ICMPExtensionESt6vectorIS2_SaIS2_EEEppEv W
_ZN9__gnu_cxx17__normal_iteratorIPKN4Tins16NetworkInterface10IPv6PrefixESt6vectorIS3_SaIS3_EEEC1ERKS5_ W
_ZN9__gnu_cxx17__normal_iteratorIPKN4Tins16NetworkInterface10IPv6PrefixESt6vectorIS3_SaIS3_EEEC2ERKS5_ W
_ZN9__gnu_cxx17__normal_iteratorIPKN4Tins16NetworkInterface10IPv6PrefixESt6vectorIS3_SaIS3_EEEppEv W
_ZN9__gnu_cxx17__normal_iteratorIPKN4Tins5Utils10RouteEntryESt6vectorIS3_SaIS3_EEEC1IPS3_EERKNS0_IT_NS_11__enable_ifIXsrSt10__are_sameISC_SB_E7__valueES8_E6__typeEEE W
_ZN9__gnu_cxx17__normal_iteratorIPKN4Tins5Utils10RouteEntryESt6vectorIS3_SaIS3_EEEC2IPS3_EERKNS0_IT_NS_11__enable_ifIXsrSt10__are_sameISC_SB_E7__valueES8_E6__typeEEE W
_ZN9__gnu_cxx17__normal_iteratorIPKN4Tins5Utils10RouteEntryESt6vectorIS3_SaIS3_EEEppEv W
_ZN9__gnu_cxx17__normal_iteratorIPKN4Tins5Utils11Route6EntryESt6vectorIS3_SaIS3_EEEC1IPS3_EERKNS0_IT_NS_11__enable_ifIXsrSt10__are_sameISC_SB_E7__valueES8_E6__typeEEE W
_ZN9__gnu_cxx17__normal_iteratorIPKN4Tins5Utils11Route6EntryESt6vectorIS3_SaIS3_EEEC2IPS3_EERKNS0_IT_NS_11__enable_ifIXsrSt10__are_sameISC_SB_E7__valueES8_E6__typeEEE W
_ZN9__gnu_cxx17__normal_iteratorIPKN4Tins5Utils11Route6EntryESt6vectorIS3_SaIS3_EEEppEv W
_ZN9__gnu_cxx17__normal_iteratorIPKN4Tins6ICMPv624multicast_address_recordESt6vectorIS3_SaIS3_EEEC1ERKS5_ W
_ZN9__gnu_cxx17__normal_iteratorIPKN4Tins6ICMPv624multicast_address_recordESt6vectorIS3_SaIS3_EEEC1IPS3_EERKNS0_IT_NS_11__enable_ifIXsrSt10__are_sameISC_SB_E7__valueES8_E6__typeEEE W
_ZN9__gnu_cxx17__normal_iteratorIPKN4Tins6ICMPv624multicast_address_recordESt6vectorIS3_SaIS3_EEEC2ERKS5_ W
_ZN9__gnu_cxx17__normal_iteratorIPKN4Tins6ICMPv624multicast_address_recordESt6vectorIS3_SaIS3_EEEC2IPS3_EERKNS0_IT_NS_11__enable_ifIXsrSt10__are_sameISC_SB_E7__valueES8_E6__typeEEE W
_ZN9__gnu_cxx17__normal_iteratorIPKN4Tins6ICMPv624multicast_address_recordESt6vectorIS3_SaIS3_EEEppEv W
_ZN9__gnu_cxx17__normal_iteratorIPKN4Tins9Internals12IPv4FragmentESt6vectorIS3_SaIS3_EEEC1ERKS5_ W
_ZN9__gnu_cxx17__normal_iteratorIPKN4Tins9Internals12IPv4FragmentESt6vectorIS3_SaIS3_EEEC2ERKS5_ W
_ZN9__gnu_cxx17__normal_iteratorIPKN4Tins9Internals12IPv4FragmentESt6vectorIS3_SaIS3_EEEppEv W
_ZN9__gnu_cxx17__normal_iteratorIPKN4Tins9PDUOptionIhNS1_3TCPEEESt6vectorIS4_SaIS4_EEEC1ERKS6_ W
_ZN9__gnu_cxx17__normal_iteratorIPKN4Tins9PDUOptionIhNS1_3TCPEEESt6vectorIS4_SaIS4_EEEC1Ev W
_ZN9__gnu_cxx17__normal_iteratorIPKN4Tins9PDUOptionIhNS1_3TCPEEESt6vectorIS4_SaIS4_EEEC1IPS4_EERKNS0_IT_NS_11__enable_ifIXsrSt10__are_sameISD_SC_E7__valueES9_E6__typeEEE W
_ZN9__gnu_cxx17__normal_iteratorIPKN4Tins9PDUOptionIhNS1_3TCPEEESt6vectorIS4_SaIS4_EEEC2ERKS6_ W
_ZN9__gnu_cxx17__normal_iteratorIPKN4Tins9PDUOptionIhNS1_3TCPEEESt6vectorIS4_SaIS4_EEEC2Ev W
_ZN9__gnu_cxx17__normal_iteratorIPKN4Tins9PDUOptionIhNS1_3TCPEEESt6vectorIS4_SaIS4_EEEC2IPS4_EERKNS0_IT_NS_11__enable_ifIXsrSt10__are_sameISD_SC_E7__valueES9_E6__typeEEE W
_ZN9__gnu_cxx17__normal_iteratorIPKN4Tins9PDUOptionIhNS1_3TCPEEESt6vectorIS4_SaIS4_EEEppEv W
_ZN9__gnu_cxx17__normal_iteratorIPKN4Tins9PDUOptionIhNS1_4DHCPEEESt6vectorIS4_SaIS4_EEEC1ERKS6_ W
_ZN9__gnu_cxx17__normal_iteratorIPKN4Tins9PDUOptionIhNS1_4DHCPEEESt6vectorIS4_SaIS4_EEEC1Ev W
_ZN9__gnu_cxx17__normal_iteratorIPKN4Tins9PDUOptionIhNS1_4DHCPEEESt6vectorIS4_SaIS4_EEEC1IPS4_EERKNS0_IT_NS_11__enable_ifIXsrSt10__are_sameISD_SC_E7__valueES9_E6__typeEEE W
_ZN9__gnu_cxx17__normal_iteratorIPKN4Tins9PDUOptionIhNS1_4DHCPEEESt6vectorIS4_SaIS4_EEEC2ERKS6_ W
_ZN9__gnu_cxx17__normal_iteratorIPKN4Tins9PDUOptionIhNS1_4DHCPEEESt6vectorIS4_SaIS4_EEEC2Ev W
_ZN9__gnu_cxx17__normal_iteratorIPKN4Tins9PDUOptionIhNS1_4DHCPEEESt6vectorIS4_SaIS4_EEEC2IPS4_EERKNS0_IT_NS_11__enable_ifIXsrSt10__are_sameISD_SC_E7__valueES9_E6__typeEEE W
_ZN9__gnu_cxx17__normal_iteratorIPKN4Tins9PDUOptionIhNS1_4DHCPEEESt6vectorIS4_SaIS4_EEEppEv W
_ZN9__gnu_cxx17__normal_iteratorIPKN4Tins9PDUOptionIhNS1_4IPv6EEESt6vectorIS4_SaIS4_EEEC1ERKS6_ W
_ZN9__gnu_cxx17__normal_iteratorIPKN4Tins9PDUOptionIhNS1_4IPv6EEESt6vectorIS4_SaIS4_EEEC1IPS4_EERKNS0_IT_NS_11__enable_ifIXsrSt10__are_sameISD_SC_E7__valueES9_E6__typeEEE W
_ZN9__gnu_cxx17__normal_iteratorIPKN4Tins9PDUOptionIhNS1_4IPv6EEESt6vectorIS4_SaIS4_EEEC2ERKS6_ W
_ZN9__gnu_cxx17__normal_iteratorIPKN4Tins9PDUOptionIhNS1_4IPv6EEESt6vectorIS4_SaIS4_EEEC2IPS4_EERKNS0_IT_NS_11__enable_ifIXsrSt10__are_sameISD_SC_E7__valueES9_E6__typeEEE W
_ZN9__gnu_cxx17__normal_iteratorIPKN4Tins9PDUOptionIhNS1_4IPv6EEESt6vectorIS4_SaIS4_EEEppEv W
_ZN9__gnu_cxx17__normal_iteratorIPKN4Tins9PDUOptionIhNS1_6ICMPv6EEESt6vectorIS4_SaIS4_EEEC1ERKS6_ W
_ZN9__gnu_cxx17__normal_iteratorIPKN4Tins9PDUOptionIhNS1_6ICMPv6EEESt6vectorIS4_SaIS4_EEEC1Ev W
_ZN9__gnu_cxx17__normal_iteratorIPKN4Tins9PDUOptionIhNS1_6ICMPv6EEESt6vectorIS4_SaIS4_EEEC1IPS4_EERKNS0_IT_NS_11__enable_ifIXsrSt10__are_sameISD_SC_E7__valueES9_E6__typeEEE W
_ZN9__gnu_cxx17__normal_iteratorIPKN4Tins9PDUOptionIhNS1_6ICMPv6EEESt6vectorIS4_SaIS4_EEEC2ERKS6_ W
_ZN9__gnu_cxx17__normal_iteratorIPKN4Tins9PDUOptionIhNS1_6ICMPv6EEESt6vectorIS4_SaIS4_EEEC2Ev W
_ZN9__gnu_cxx17__normal_iteratorIPKN4Tins9PDUOptionIhNS1_6ICMPv6EEESt6vectorIS4_SaIS4_EEEC2IPS4_EERKNS0_IT_NS_11__enable_ifIXsrSt10__are_sameISD_SC_E7__valueES9_E6__typeEEE W
_ZN9__gnu_cxx17__normal_iteratorIPKN4Tins9PDUOptionIhNS1_6ICMPv6EEESt6vectorIS4_SaIS4_EEEppEv W
_ZN9__gnu_cxx17__normal_iteratorIPKN4Tins9PDUOptionINS1_2IP17option_identifierES3_EESt6vectorIS5_SaIS5_EEEC1ERKS7_ W
_ZN9__gnu_cxx17__normal_iteratorIPKN4Tins9PDUOptionINS1_2IP17option_identifierES3_EESt6vectorIS5_SaIS5_EEEC1Ev W
_ZN9__gnu_cxx17__normal_iteratorIPKN4Tins9PDUOptionINS1_2IP17option_identifierES3_EESt6vectorIS5_SaIS5_EEEC1IPS5_EERKNS0_IT_NS_11__enable_ifIXsrSt10__are_sameISE_SD_E7__valueESA_E6__typeEEE W
_ZN9__gnu_cxx17__normal_iteratorIPKN4Tins9PDUOptionINS1_2IP17option_identifierES3_EESt6vectorIS5_SaIS5_EEEC2ERKS7_ W
_ZN9__gnu_cxx17__normal_iteratorIPKN4Tins9PDUOptionINS1_2IP17option_identifierES3_EESt6vectorIS5_SaIS5_EEEC2Ev W
_ZN9__gnu_cxx17__normal_iteratorIPKN4Tins9PDUOptionINS1_2IP17option_identifierES3_EESt6vectorIS5_SaIS5_EEEC2IPS5_EERKNS0_IT_NS_11__enable_ifIXsrSt10__are_sameISE_SD_E7__valueESA_E6__typeEEE W
_ZN9__gnu_cxx17__normal_iteratorIPKN4Tins9PDUOptionINS1_2IP17option_identifierES3_EESt6vectorIS5_SaIS5_EEEppEv W
_ZN9__gnu_cxx17__normal_iteratorIPKN4Tins9PDUOptionINS1_5PPPoE8TagTypesES3_EESt6vectorIS5_SaIS5_EEEC1ERKS7_ W
_ZN9__gnu_cxx17__normal_iteratorIPKN4Tins9PDUOptionINS1_5PPPoE8TagTypesES3_EESt6vectorIS5_SaIS5_EEEC1IPS5_EERKNS0_IT_NS_11__enable_ifIXsrSt10__are_sameISE_SD_E7__valueESA_E6__typeEEE W
_ZN9__gnu_cxx17__normal_iteratorIPKN4Tins9PDUOptionINS1_5PPPoE8TagTypesES3_EESt6vectorIS5_SaIS5_EEEC2ERKS7_ W
_ZN9__gnu_cxx17__normal_iteratorIPKN4Tins9PDUOptionINS1_5PPPoE8TagTypesES3_EESt6vectorIS5_SaIS5_EEEC2IPS5_EERKNS0_IT_NS_11__enable_ifIXsrSt10__are_sameISE_SD_E7__valueESA_E6__typeEEE W
_ZN9__gnu_cxx17__normal_iteratorIPKN4Tins9PDUOptionINS1_5PPPoE8TagTypesES3_EESt6vectorIS5_SaIS5_EEEppEv W
_ZN9__gnu_cxx17__normal_iteratorIPKN4Tins9PDUOptionItNS1_6DHCPv6EEESt6vectorIS4_SaIS4_EEEC1ERKS6_ W
_ZN9__gnu_cxx17__normal_iteratorIPKN4Tins9PDUOptionItNS1_6DHCPv6EEESt6vectorIS4_SaIS4_EEEC1Ev W
_ZN9__gnu_cxx17__normal_iteratorIPKN4Tins9PDUOptionItNS1_6DHCPv6EEESt6vectorIS4_SaIS4_EEEC1IPS4_EERKNS0_IT_NS_11__enable_ifIXsrSt10__are_sameISD_SC_E7__valueES9_E6__typeEEE W
_ZN9__gnu_cxx17__normal_iteratorIPKN4Tins9PDUOptionItNS1_6DHCPv6EEESt6vectorIS4_SaIS4_EEEC2ERKS6_ W
_ZN9__gnu_cxx17__normal_iteratorIPKN4Tins9PDUOptionItNS1_6DHCPv6EEESt6vectorIS4_SaIS4_EEEC2Ev W
_ZN9__gnu_cxx17__normal_iteratorIPKN4Tins9PDUOptionItNS1_6DHCPv6EEESt6vectorIS4_SaIS4_EEEC2IPS4_EERKNS0_IT_NS_11__enable_ifIXsrSt10__are_sameISD_SC_E7__valueES9_E6__typeEEE W
_ZN9__gnu_cxx17__normal_iteratorIPKN4Tins9PDUOptionItNS1_6DHCPv6EEESt6vectorIS4_SaIS4_EEEppEv W
_ZN9__gnu_cxx17__normal_iteratorIPKSsSt6vectorISsSaISsEEEC1ERKS2_ W
_ZN9__gnu_cxx17__normal_iteratorIPKSsSt6vectorISsSaISsEEEC2ERKS2_ W
_ZN9__gnu_cxx17__normal_iteratorIPKSsSt6vectorISsSaISsEEEppEv W
_ZN9__gnu_cxx17__normal_iteratorIPKSt4pairIhSt6vectorIhSaIhEEES2_IS5_SaIS5_EEEC1ERKS7_ W
_ZN9__gnu_cxx17__normal_iteratorIPKSt4pairIhSt6vectorIhSaIhEEES2_IS5_SaIS5_EEEC2ERKS7_ W
_ZN9__gnu_cxx17__normal_iteratorIPKSt4pairIhSt6vectorIhSaIhEEES2_IS5_SaIS5_EEEppEv W
_ZN9__gnu_cxx17__normal_iteratorIPKSt4pairIPjjESt6vectorIS3_SaIS3_EEEC1ERKS5_ W
_ZN9__gnu_cxx17__normal_iteratorIPKSt4pairIPjjESt6vectorIS3_SaIS3_EEEC2ERKS5_ W
_ZN9__gnu_cxx17__normal_iteratorIPKSt6vectorIhSaIhEES1_IS3_SaIS3_EEEC1ERKS5_ W
_ZN9__gnu_cxx17__normal_iteratorIPKSt6vectorIhSaIhEES1_IS3_SaIS3_EEEC1IPS3_EERKNS0_IT_NS_11__enable_ifIXsrSt10__are_sameISB_SA_E7__valueES7_E6__typeEEE W
_ZN9__gnu_cxx17__normal_iteratorIPKSt6vectorIhSaIhEES1_IS3_SaIS3_EEEC2ERKS5_ W
_ZN9__gnu_cxx17__normal_iteratorIPKSt6vectorIhSaIhEES1_IS3_SaIS3_EEEC2IPS3_EERKNS0_IT_NS_11__enable_ifIXsrSt10__are_sameISB_SA_E7__valueES7_E6__typeEEE W
_ZN9__gnu_cxx17__normal_iteratorIPKSt6vectorIhSaIhEES1_IS3_SaIS3_EEEppEi W
_ZN9__gnu_cxx17__normal_iteratorIPKSt6vectorIhSaIhEES1_IS3_SaIS3_EEEppEv W
_ZN9__gnu_cxx17__normal_iteratorIPKtSt6vectorItSaItEEEC1ERKS2_ W
_ZN9__gnu_cxx17__normal_iteratorIPKtSt6vectorItSaItEEEC2ERKS2_ W
_ZN9__gnu_cxx17__normal_iteratorIPKtSt6vectorItSaItEEEppEv W
_ZN9__gnu_cxx17__normal_iteratorIPN4Tins11IPv4AddressESt6vectorIS2_SaIS2_EEEC1ERKS3_ W
_ZN9__gnu_cxx17__normal_iteratorIPN4Tins11IPv4AddressESt6vectorIS2_SaIS2_EEEC2ERKS3_ W
_ZN9__gnu_cxx17__normal_iteratorIPN4Tins11IPv4AddressESt6vectorIS2_SaIS2_EEEppEi W
_ZN9__gnu_cxx17__normal_iteratorIPN4Tins11IPv6AddressESt6vectorIS2_SaIS2_EEEC1ERKS3_ W
_ZN9__gnu_cxx17__normal_iteratorIPN4Tins11IPv6AddressESt6vectorIS2_SaIS2_EEEC2ERKS3_ W
_ZN9__gnu_cxx17__normal_iteratorIPN4Tins13ICMPExtensionESt6vectorIS2_SaIS2_EEEC1ERKS3_ W
_ZN9__gnu_cxx17__normal_iteratorIPN4Tins13ICMPExtensionESt6vectorIS2_SaIS2_EEEC2ERKS3_ W
_ZN9__gnu_cxx17__normal_iteratorIPN4Tins13ICMPExtensionESt6vectorIS2_SaIS2_EEEppEv W
_ZN9__gnu_cxx17__normal_iteratorIPN4Tins16NetworkInterface10IPv6PrefixESt6vectorIS3_SaIS3_EEEC1ERKS4_ W
_ZN9__gnu_cxx17__normal_iteratorIPN4Tins16NetworkInterface10IPv6PrefixESt6vectorIS3_SaIS3_EEEC2ERKS4_ W
_ZN9__gnu_cxx17__normal_iteratorIPN4Tins16NetworkInterfaceESt6vectorIS2_SaIS2_EEEC1ERKS3_ W
_ZN9__gnu_cxx17__normal_iteratorIPN4Tins16NetworkInterfaceESt6vectorIS2_SaIS2_EEEC2ERKS3_ W
_ZN9__gnu_cxx17__normal_iteratorIPN4Tins3DNS5queryESt6vectorIS3_SaIS3_EEEC1ERKS4_ W
_ZN9__gnu_cxx17__normal_iteratorIPN4Tins3DNS5queryESt6vectorIS3_SaIS3_EEEC2ERKS4_ W
_ZN9__gnu_cxx17__normal_iteratorIPN4Tins3DNS8resourceESt6vectorIS3_SaIS3_EEEC1ERKS4_ W
_ZN9__gnu_cxx17__normal_iteratorIPN4Tins3DNS8resourceESt6vectorIS3_SaIS3_EEEC2ERKS4_ W
_ZN9__gnu_cxx17__normal_iteratorIPN4Tins5Utils10RouteEntryESt6vectorIS3_SaIS3_EEEC1ERKS4_ W
_ZN9__gnu_cxx17__normal_iteratorIPN4Tins5Utils10RouteEntryESt6vectorIS3_SaIS3_EEEC2ERKS4_ W
_ZN9__gnu_cxx17__normal_iteratorIPN4Tins5Utils11Route6EntryESt6vectorIS3_SaIS3_EEEC1ERKS4_ W
_ZN9__gnu_cxx17__normal_iteratorIPN4Tins5Utils11Route6EntryESt6vectorIS3_SaIS3_EEEC2ERKS4_ W
_ZN9__gnu_cxx17__normal_iteratorIPN4Tins6ICMPv624multicast_address_recordESt6vectorIS3_SaIS3_EEEC1ERKS4_ W
_ZN9__gnu_cxx17__normal_iteratorIPN4Tins6ICMPv624multicast_address_recordESt6vectorIS3_SaIS3_EEEC2ERKS4_ W
_ZN9__gnu_cxx17__normal_iteratorIPN4Tins6ICMPv624multicast_address_recordESt6vectorIS3_SaIS3_EEEppEv W
_ZN9__gnu_cxx17__normal_iteratorIPN4Tins9Internals12IPv4FragmentESt6vectorIS3_SaIS3_EEEC1ERKS4_ W
_ZN9__gnu_cxx17__normal_iteratorIPN4Tins9Internals12IPv4FragmentESt6vectorIS3_SaIS3_EEEC2ERKS4_ W
_ZN9__gnu_cxx17__normal_iteratorIPN4Tins9Internals12IPv4FragmentESt6vectorIS3_SaIS3_EEEppEv W
_ZN9__gnu_cxx17__normal_iteratorIPN4Tins9PDUOptionIhNS1_3TCPEEESt6vectorIS4_SaIS4_EEEC1ERKS5_ W
_ZN9__gnu_cxx17__normal_iteratorIPN4Tins9PDUOptionIhNS1_3TCPEEESt6vectorIS4_SaIS4_EEEC1Ev W
_ZN9__gnu_cxx17__normal_iteratorIPN4Tins9PDUOptionIhNS1_3TCPEEESt6vectorIS4_SaIS4_EEEC2ERKS5_ W
_ZN9__gnu_cxx17__normal_iteratorIPN4Tins9PDUOptionIhNS1_3TCPEEESt6vectorIS4_SaIS4_EEEC2Ev W
_ZN9__gnu_cxx17__normal_iteratorIPN4Tins9PDUOptionIhNS1_3TCPEEESt6vectorIS4_SaIS4_EEEppEv W
_ZN9__gnu_cxx17__normal_iteratorIPN4Tins9PDUOptionIhNS1_4DHCPEEESt6vectorIS4_SaIS4_EEEC1ERKS5_ W
_ZN9__gnu_cxx17__normal_iteratorIPN4Tins9PDUOptionIhNS1_4DHCPEEESt6vectorIS4_SaIS4_EEEC1Ev W
_ZN9__gnu_cxx17__normal_iteratorIPN4Tins9PDUOptionIhNS1_4DHCPEEESt6vectorIS4_SaIS4_EEEC2ERKS5_ W
_ZN9__gnu_cxx17__normal_iteratorIPN4Tins9PDUOptionIhNS1_4DHCPEEESt6vectorIS4_SaIS4_EEEC2Ev W
_ZN9__gnu_cxx17__normal_iteratorIPN4Tins9PDUOptionIhNS1_4DHCPEEESt6vectorIS4_SaIS4_EEEppEv W
_ZN9__gnu_cxx17__normal_iteratorIPN4Tins9PDUOptionIhNS1_4IPv6EEESt6vectorIS4_SaIS4_EEEC1ERKS5_ W
_ZN9__gnu_cxx17__normal_iteratorIPN4Tins9PDUOptionIhNS1_4IPv6EEESt6vectorIS4_SaIS4_EEEC2ERKS5_ W
_ZN9__gnu_cxx17__normal_iteratorIPN4Tins9PDUOptionIhNS1_6ICMPv6EEESt6vectorIS4_SaIS4_EEEC1ERKS5_ W
_ZN9__gnu_cxx17__normal_iteratorIPN4Tins9PDUOptionIhNS1_6ICMPv6EEESt6vectorIS4_SaIS4_EEEC1Ev W
_ZN9__gnu_cxx17__normal_iteratorIPN4Tins9PDUOptionIhNS1_6ICMPv6EEESt6vectorIS4_SaIS4_EEEC2ERKS5_ W
_ZN9__gnu_cxx17__normal_iteratorIPN4Tins9PDUOptionIhNS1_6ICMPv6EEESt6vectorIS4_SaIS4_EEEC2Ev W
_ZN9__gnu_cxx17__normal_iteratorIPN4Tins9PDUOptionIhNS1_6ICMPv6EEESt6vectorIS4_SaIS4_EEEppEv W
_ZN9__gnu_cxx17__normal_iteratorIPN4Tins9PDUOptionINS1_2IP17option_identifierES3_EESt6vectorIS5_SaIS5_EEEC1ERKS6_ W
_ZN9__gnu_cxx17__normal_iteratorIPN4Tins9PDUOptionINS1_2IP17option_identifierES3_EESt6vectorIS5_SaIS5_EEEC1Ev W
_ZN9__gnu_cxx17__normal_iteratorIPN4Tins9PDUOptionINS1_2IP17option_identifierES3_EESt6vectorIS5_SaIS5_EEEC2ERKS6_ W
_ZN9__gnu_cxx17__normal_iteratorIPN4Tins9PDUOptionINS1_2IP17option_identifierES3_EESt6vectorIS5_SaIS5_EEEC2Ev W
_ZN9__gnu_cxx17__normal_iteratorIPN4Tins9PDUOptionINS1_2IP17option_identifierES3_EESt6vectorIS5_SaIS5_EEEppEv W
_ZN9__gnu_cxx17__normal_iteratorIPN4Tins9PDUOptionINS1_5PPPoE8TagTypesES3_EESt6vectorIS5_SaIS5_EEEC1ERKS6_ W
_ZN9__gnu_cxx17__normal_iteratorIPN4Tins9PDUOptionINS1_5PPPoE8TagTypesES3_EESt6vectorIS5_SaIS5_EEEC2ERKS6_ W
_ZN9__gnu_cxx17__normal_iteratorIPN4Tins9PDUOptionItNS1_6DHCPv6EEESt6vectorIS4_SaIS4_EEEC1ERKS5_ W
_ZN9__gnu_cxx17__normal_iteratorIPN4Tins9PDUOptionItNS1_6DHCPv6EEESt6vectorIS4_SaIS4_EEEC1Ev W
_ZN9__gnu_cxx17__normal_iteratorIPN4Tins9PDUOptionItNS1_6DHCPv6EEESt6vectorIS4_SaIS4_EEEC2ERKS5_ W
_ZN9__gnu_cxx17__normal_iteratorIPN4Tins9PDUOptionItNS1_6DHCPv6EEESt6vectorIS4_SaIS4_EEEC2Ev W
_ZN9__gnu_cxx17__normal_iteratorIPN4Tins9PDUOptionItNS1_6DHCPv6EEESt6vectorIS4_SaIS4_EEEppEv W
_ZN9__gnu_cxx17__normal_iteratorIPSsSt6vectorISsSaISsEEEC1ERKS1_ W
_ZN9__gnu_cxx17__normal_iteratorIPSsSt6vectorISsSaISsEEEC2ERKS1_ W
_ZN9__gnu_cxx17__normal_iteratorIPSt4pairIhhESt6vectorIS2_SaIS2_EEEC1ERKS3_ W
_ZN9__gnu_cxx17__normal_iteratorIPSt4pairIhhESt6vectorIS2_SaIS2_EEEC2ERKS3_ W
_ZN9__gnu_cxx17__normal_iteratorIPSt4pairIhSt6vectorIhSaIhEEES2_IS5_SaIS5_EEEC1ERKS6_ W
_ZN9__gnu_cxx17__normal_iteratorIPSt4pairIhSt6vectorIhSaIhEEES2_IS5_SaIS5_EEEC2ERKS6_ W
_ZN9__gnu_cxx17__normal_iteratorIPSt4pairIhSt6vectorIhSaIhEEES2_IS5_SaIS5_EEEppEv W
_ZN9__gnu_cxx17__normal_iteratorIPSt4pairIPjjESt6vectorIS3_SaIS3_EEEC1ERKS4_ W
_ZN9__gnu_cxx17__normal_iteratorIPSt4pairIPjjESt6vectorIS3_SaIS3_EEEC2ERKS4_ W
_ZN9__gnu_cxx17__normal_iteratorIPSt6vectorIhSaIhEES1_IS3_SaIS3_EEEC1ERKS4_ W
_ZN9__gnu_cxx17__normal_iteratorIPSt6vectorIhSaIhEES1_IS3_SaIS3_EEEC2ERKS4_ W
_ZN9__gnu_cxx17__normal_iteratorIPSt6vectorIhSaIhEES1_IS3_SaIS3_EEEppEv W
_ZN9__gnu_cxx17__normal_iteratorIPtSt6vectorItSaItEEEC1ERKS1_ W
_ZN9__gnu_cxx17__normal_iteratorIPtSt6vectorItSaItEEEC2ERKS1_ W
_ZN9__gnu_cxx17__normal_iteratorIPtSt6vectorItSaItEEEppEi W
_ZN9__gnu_cxxeqIPcSsEEbRKNS_17__normal_iteratorIT_T0_EES7_ W
_ZN9__gnu_cxxeqIPhSt6vectorIhSaIhEEEEbRKNS_17__normal_iteratorIT_T0_EESA_ W
_ZN9__gnu_cxxeqIPKhSt6vectorIhSaIhEEEEbRKNS_17__normal_iteratorIT_T0_EESB_ W
_ZN9__gnu_cxxeqIPKN4Tins13ICMPExtensionESt6vectorIS2_SaIS2_EEEEbRKNS_17__normal_iteratorIT_T0_EESD_ W
_ZN9__gnu_cxxeqIPKN4Tins9PDUOptionIhNS1_4IPv6EEESt6vectorIS4_SaIS4_EEEEbRKNS_17__normal_iteratorIT_T0_EESF_ W
_ZN9__gnu_cxxeqIPKSt4pairIPjjESt6vectorIS3_SaIS3_EEEEbRKNS_17__normal_iteratorIT_T0_EESE_ W
_ZN9__gnu_cxxeqIPN4Tins9Internals12IPv4FragmentESt6vectorIS3_SaIS3_EEEEbRKNS_17__normal_iteratorIT_T0_EESD_ W
_ZN9__gnu_cxxeqIPN4Tins9PDUOptionIhNS1_3TCPEEESt6vectorIS4_SaIS4_EEEEbRKNS_17__normal_iteratorIT_T0_EESE_ W
_ZN9__gnu_cxxeqIPN4Tins9PDUOptionIhNS1_4DHCPEEESt6vectorIS4_SaIS4_EEEEbRKNS_17__normal_iteratorIT_T0_EESE_ W
_ZN9__gnu_cxxeqIPN4Tins9PDUOptionIhNS1_6ICMPv6EEESt6vectorIS4_SaIS4_EEEEbRKNS_17__normal_iteratorIT_T0_EESE_ W
_ZN9__gnu_cxxeqIPN4Tins9PDUOptionINS1_2IP17option_identifierES3_EESt6vectorIS5_SaIS5_EEEEbRKNS_17__normal_iteratorIT_T0_EESF_ W
_ZN9__gnu_cxxeqIPN4Tins9PDUOptionItNS1_6DHCPv6EEESt6vectorIS4_SaIS4_EEEEbRKNS_17__normal_iteratorIT_T0_EESE_ W
_ZN9__gnu_cxxltIPhSt6vectorIhSaIhEEEEbRKNS_17__normal_iteratorIT_T0_EESA_ W
_ZN9__gnu_cxxltIPKcSsEEbRKNS_17__normal_iteratorIT_T0_EES8_ W
_ZN9__gnu_cxxltIPKhSt6vectorIhSaIhEEEEbRKNS_17__normal_iteratorIT_T0_EESB_ W
_ZN9__gnu_cxxmiIPcSsEENS_17__normal_iteratorIT_T0_E15difference_typeERKS5_S8_ W
_ZN9__gnu_cxxmiIPfSt6vectorIfSaIfEEEENS_17__normal_iteratorIT_T0_E15difference_typeERKS8_SB_ W
_ZN9__gnu_cxxmiIPhSt6vectorIhSaIhEEEENS_17__normal_iteratorIT_T0_E15difference_typeERKS8_SB_ W
_ZN9__gnu_cxxmiIPiSt6vectorIiSaIiEEEENS_17__normal_iteratorIT_T0_E15difference_typeERKS8_SB_ W
_ZN9__gnu_cxxmiIPKcSsEENS_17__normal_iteratorIT_T0_E15difference_typeERKS6_S9_ W
_ZN9__gnu_cxxmiIPKhSt6vectorIhSaIhEEEENS_17__normal_iteratorIT_T0_E15difference_typeERKS9_SC_ W
_ZN9__gnu_cxxmiIPN4Tins11IPv4AddressESt6vectorIS2_SaIS2_EEEENS_17__normal_iteratorIT_T0_E15difference_typeERKSA_SD_ W
_ZN9__gnu_cxxmiIPN4Tins11IPv6AddressESt6vectorIS2_SaIS2_EEEENS_17__normal_iteratorIT_T0_E15difference_typeERKSA_SD_ W
_ZN9__gnu_cxxmiIPN4Tins13ICMPExtensionESt6vectorIS2_SaIS2_EEEENS_17__normal_iteratorIT_T0_E15difference_typeERKSA_SD_ W
_ZN9__gnu_cxxmiIPN4Tins16NetworkInterface10IPv6PrefixESt6vectorIS3_SaIS3_EEEENS_17__normal_iteratorIT_T0_E15difference_typeERKSB_SE_ W
_ZN9__gnu_cxxmiIPN4Tins16NetworkInterfaceESt6vectorIS2_SaIS2_EEEENS_17__normal_iteratorIT_T0_E15difference_typeERKSA_SD_ W
_ZN9__gnu_cxxmiIPN4Tins3DNS5queryESt6vectorIS3_SaIS3_EEEENS_17__normal_iteratorIT_T0_E15difference_typeERKSB_SE_ W
_ZN9__gnu_cxxmiIPN4Tins3DNS8resourceESt6vectorIS3_SaIS3_EEEENS_17__normal_iteratorIT_T0_E15difference_typeERKSB_SE_ W
_ZN9__gnu_cxxmiIPN4Tins5Utils10RouteEntryESt6vectorIS3_SaIS3_EEEENS_17__normal_iteratorIT_T0_E15difference_typeERKSB_SE_ W
_ZN9__gnu_cxxmiIPN4Tins5Utils11Route6EntryESt6vectorIS3_SaIS3_EEEENS_17__normal_iteratorIT_T0_E15difference_typeERKSB_SE_ W
_ZN9__gnu_cxxmiIPN4Tins6ICMPv624multicast_address_recordESt6vectorIS3_SaIS3_EEEENS_17__normal_iteratorIT_T0_E15difference_typeERKSB_SE_ W
_ZN9__gnu_cxxmiIPN4Tins9Internals12IPv4FragmentESt6vectorIS3_SaIS3_EEEENS_17__normal_iteratorIT_T0_E15difference_typeERKSB_SE_ W
_ZN9__gnu_cxxmiIPN4Tins9PDUOptionIhNS1_3TCPEEESt6vectorIS4_SaIS4_EEEENS_17__normal_iteratorIT_T0_E15difference_typeERKSC_SF_ W
_ZN9__gnu_cxxmiIPN4Tins9PDUOptionIhNS1_4DHCPEEESt6vectorIS4_SaIS4_EEEENS_17__normal_iteratorIT_T0_E15difference_typeERKSC_SF_ W
_ZN9__gnu_cxxmiIPN4Tins9PDUOptionIhNS1_4IPv6EEESt6vectorIS4_SaIS4_EEEENS_17__normal_iteratorIT_T0_E15difference_typeERKSC_SF_ W
_ZN9__gnu_cxxmiIPN4Tins9PDUOptionIhNS1_6ICMPv6EEESt6vectorIS4_SaIS4_EEEENS_17__normal_iteratorIT_T0_E15difference_typeERKSC_SF_ W
_ZN9__gnu_cxxmiIPN4Tins9PDUOptionINS1_2IP17option_identifierES3_EESt6vectorIS5_SaIS5_EEEENS_17__normal_iteratorIT_T0_E15difference_typeERKSD_SG_ W
_ZN9__gnu_cxxmiIPN4Tins9PDUOptionINS1_5PPPoE8TagTypesES3_EESt6vectorIS5_SaIS5_EEEENS_17__normal_iteratorIT_T0_E15difference_typeERKSD_SG_ W
_ZN9__gnu_cxxmiIPN4Tins9PDUOptionItNS1_6DHCPv6EEESt6vectorIS4_SaIS4_EEEENS_17__normal_iteratorIT_T0_E15difference_typeERKSC_SF_ W
_ZN9__gnu_cxxmiIPSsSt6vectorISsSaISsEEEENS_17__normal_iteratorIT_T0_E15difference_typeERKS8_SB_ W
_ZN9__gnu_cxxmiIPSt4pairIhhESt6vectorIS2_SaIS2_EEEENS_17__normal_iteratorIT_T0_E15difference_typeERKSA_SD_ W
_ZN9__gnu_cxxmiIPSt4pairIhSt6vectorIhSaIhEEES2_IS5_SaIS5_EEEENS_17__normal_iteratorIT_T0_E15difference_typeERKSC_SF_ W
_ZN9__gnu_cxxmiIPSt4pairIPjjESt6vectorIS3_SaIS3_EEEENS_17__normal_iteratorIT_T0_E15difference_typeERKSB_SE_ W
_ZN9__gnu_cxxmiIPSt6vectorIhSaIhEES1_IS3_SaIS3_EEEENS_17__normal_iteratorIT_T0_E15difference_typeERKSA_SD_ W
_ZN9__gnu_cxxneIPcSsEEbRKNS_17__normal_iteratorIT_T0_EES7_ W
_ZN9__gnu_cxxneIPKcSsEEbRKNS_17__normal_iteratorIT_T0_EES8_ W
_ZN9__gnu_cxxneIPKhSt6vectorIhSaIhEEEEbRKNS_17__normal_iteratorIT_T0_EESB_ W
_ZN9__gnu_cxxneIPKiSt6vectorIiSaIiEEEEbRKNS_17__normal_iteratorIT_T0_EESB_ W
_ZN9__gnu_cxxneIPKjSt6vectorIjSaIjEEEEbRKNS_17__normal_iteratorIT_T0_EESB_ W
_ZN9__gnu_cxxneIPKN4Tins11IPv4AddressESt6vectorIS2_SaIS2_EEEEbRKNS_17__normal_iteratorIT_T0_EESD_ W
_ZN9__gnu_cxxneIPKN4Tins11IPv6AddressEPS2_St6vectorIS2_SaIS2_EEEEbRKNS_17__normal_iteratorIT_T1_EERKNS9_IT0_SB_EE W
_ZN9__gnu_cxxneIPKN4Tins11IPv6AddressESt6vectorIS2_SaIS2_EEEEbRKNS_17__normal_iteratorIT_T0_EESD_ W
_ZN9__gnu_cxxneIPKN4Tins13ICMPExtensionEPS2_St6vectorIS2_SaIS2_EEEEbRKNS_17__normal_iteratorIT_T1_EERKNS9_IT0_SB_EE W
_ZN9__gnu_cxxneIPKN4Tins13ICMPExtensionESt6vectorIS2_SaIS2_EEEEbRKNS_17__normal_iteratorIT_T0_EESD_ W
_ZN9__gnu_cxxneIPKN4Tins16NetworkInterface10IPv6PrefixESt6vectorIS3_SaIS3_EEEEbRKNS_17__normal_iteratorIT_T0_EESE_ W
_ZN9__gnu_cxxneIPKN4Tins5Utils10RouteEntryEPS3_St6vectorIS3_SaIS3_EEEEbRKNS_17__normal_iteratorIT_T1_EERKNSA_IT0_SC_EE W
_ZN9__gnu_cxxneIPKN4Tins5Utils11Route6EntryEPS3_St6vectorIS3_SaIS3_EEEEbRKNS_17__normal_iteratorIT_T1_EERKNSA_IT0_SC_EE W
_ZN9__gnu_cxxneIPKN4Tins6ICMPv624multicast_address_recordEPS3_St6vectorIS3_SaIS3_EEEEbRKNS_17__normal_iteratorIT_T1_EERKNSA_IT0_SC_EE W
_ZN9__gnu_cxxneIPKN4Tins6ICMPv624multicast_address_recordESt6vectorIS3_SaIS3_EEEEbRKNS_17__normal_iteratorIT_T0_EESE_ W
_ZN9__gnu_cxxneIPKN4Tins9Internals12IPv4FragmentESt6vectorIS3_SaIS3_EEEEbRKNS_17__normal_iteratorIT_T0_EESE_ W
_ZN9__gnu_cxxneIPKN4Tins9PDUOptionIhNS1_3TCPEEEPS4_St6vectorIS4_SaIS4_EEEEbRKNS_17__normal_iteratorIT_T1_EERKNSB_IT0_SD_EE W
_ZN9__gnu_cxxneIPKN4Tins9PDUOptionIhNS1_3TCPEEESt6vectorIS4_SaIS4_EEEEbRKNS_17__normal_iteratorIT_T0_EESF_ W
_ZN9__gnu_cxxneIPKN4Tins9PDUOptionIhNS1_4DHCPEEEPS4_St6vectorIS4_SaIS4_EEEEbRKNS_17__normal_iteratorIT_T1_EERKNSB_IT0_SD_EE W
_ZN9__gnu_cxxneIPKN4Tins9PDUOptionIhNS1_4DHCPEEESt6vectorIS4_SaIS4_EEEEbRKNS_17__normal_iteratorIT_T0_EESF_ W
_ZN9__gnu_cxxneIPKN4Tins9PDUOptionIhNS1_4IPv6EEEPS4_St6vectorIS4_SaIS4_EEEEbRKNS_17__normal_iteratorIT_T1_EERKNSB_IT0_SD_EE W
_ZN9__gnu_cxxneIPKN4Tins9PDUOptionIhNS1_4IPv6EEESt6vectorIS4_SaIS4_EEEEbRKNS_17__normal_iteratorIT_T0_EESF_ W
_ZN9__gnu_cxxneIPKN4Tins9PDUOptionIhNS1_6ICMPv6EEEPS4_St6vectorIS4_SaIS4_EEEEbRKNS_17__normal_iteratorIT_T1_EERKNSB_IT0_SD_EE W
_ZN9__gnu_cxxneIPKN4Tins9PDUOptionIhNS1_6ICMPv6EEESt6vectorIS4_SaIS4_EEEEbRKNS_17__normal_iteratorIT_T0_EESF_ W
_ZN9__gnu_cxxneIPKN4Tins9PDUOptionINS1_2IP17option_identifierES3_EEPS5_St6vectorIS5_SaIS5_EEEEbRKNS_17__normal_iteratorIT_T1_EERKNSC_IT0_SE_EE W
_ZN9__gnu_cxxneIPKN4Tins9PDUOptionINS1_2IP17option_identifierES3_EESt6vectorIS5_SaIS5_EEEEbRKNS_17__normal_iteratorIT_T0_EESG_ W
_ZN9__gnu_cxxneIPKN4Tins9PDUOptionINS1_5PPPoE8TagTypesES3_EEPS5_St6vectorIS5_SaIS5_EEEEbRKNS_17__normal_iteratorIT_T1_EERKNSC_IT0_SE_EE W
_ZN9__gnu_cxxneIPKN4Tins9PDUOptionINS1_5PPPoE8TagTypesES3_EESt6vectorIS5_SaIS5_EEEEbRKNS_17__normal_iteratorIT_T0_EESG_ W
_ZN9__gnu_cxxneIPKN4Tins9PDUOptionItNS1_6DHCPv6EEEPS4_St6vectorIS4_SaIS4_EEEEbRKNS_17__normal_iteratorIT_T1_EERKNSB_IT0_SD_EE W
_ZN9__gnu_cxxneIPKN4Tins9PDUOptionItNS1_6DHCPv6EEESt6vectorIS4_SaIS4_EEEEbRKNS_17__normal_iteratorIT_T0_EESF_ W
_ZN9__gnu_cxxneIPKSsSt6vectorISsSaISsEEEEbRKNS_17__normal_iteratorIT_T0_EESB_ W
_ZN9__gnu_cxxneIPKSt4pairIhSt6vectorIhSaIhEEES2_IS5_SaIS5_EEEEbRKNS_17__normal_iteratorIT_T0_EESF_ W
_ZN9__gnu_cxxneIPKSt6vectorIhSaIhEEPS3_S1_IS3_SaIS3_EEEEbRKNS_17__normal_iteratorIT_T1_EERKNS9_IT0_SB_EE W
_ZN9__gnu_cxxneIPKSt6vectorIhSaIhEES1_IS3_SaIS3_EEEEbRKNS_17__normal_iteratorIT_T0_EESD_ W
_ZN9__gnu_cxxneIPKtSt6vectorItSaItEEEEbRKNS_17__normal_iteratorIT_T0_EESB_ W
_ZN9__gnu_cxxneIPN4Tins13ICMPExtensionESt6vectorIS2_SaIS2_EEEEbRKNS_17__normal_iteratorIT_T0_EESC_ W
_ZN9__gnu_cxxneIPN4Tins6ICMPv624multicast_address_recordESt6vectorIS3_SaIS3_EEEEbRKNS_17__normal_iteratorIT_T0_EESD_ W
_ZN9__gnu_cxxneIPN4Tins9Internals12IPv4FragmentESt6vectorIS3_SaIS3_EEEEbRKNS_17__normal_iteratorIT_T0_EESD_ W
_ZN9__gnu_cxxneIPN4Tins9PDUOptionIhNS1_3TCPEEESt6vectorIS4_SaIS4_EEEEbRKNS_17__normal_iteratorIT_T0_EESE_ W
_ZN9__gnu_cxxneIPN4Tins9PDUOptionIhNS1_4DHCPEEESt6vectorIS4_SaIS4_EEEEbRKNS_17__normal_iteratorIT_T0_EESE_ W
_ZN9__gnu_cxxneIPN4Tins9PDUOptionIhNS1_6ICMPv6EEESt6vectorIS4_SaIS4_EEEEbRKNS_17__normal_iteratorIT_T0_EESE_ W
_ZN9__gnu_cxxneIPN4Tins9PDUOptionINS1_2IP17option_identifierES3_EESt6vectorIS5_SaIS5_EEEEbRKNS_17__normal_iteratorIT_T0_EESF_ W
_ZN9__gnu_cxxneIPN4Tins9PDUOptionItNS1_6DHCPv6EEESt6vectorIS4_SaIS4_EEEEbRKNS_17__normal_iteratorIT_T0_EESE_ W
_ZN9__gnu_cxxneIPSt4pairIhSt6vectorIhSaIhEEES2_IS5_SaIS5_EEEEbRKNS_17__normal_iteratorIT_T0_EESE_ W
_ZN9__gnu_cxxneIPSt6vectorIhSaIhEES1_IS3_SaIS3_EEEEbRKNS_17__normal_iteratorIT_T0_EESC_ W
_ZNK4Tins10EthernetII11header_sizeEv T
_ZNK4Tins10EthernetII12payload_typeEv W
_ZNK4Tins10EthernetII12trailer_sizeEv T
_ZNK4Tins10EthernetII16matches_responseEPKhj T
_ZNK4Tins10EthernetII5cloneEv W
_ZNK4Tins10EthernetII8dst_addrEv W
_ZNK4Tins10EthernetII8pdu_typeEv W
_ZNK4Tins10small_uintILm12EEcvtEv W
_ZNK4Tins10small_uintILm13EEcvtEv W
_ZNK4Tins10small_uintILm1EEcvhEv W
_ZNK4Tins10small_uintILm20EEcvjEv W
_ZNK4Tins10small_uintILm24EEcvjEv W
_ZNK4Tins10small_uintILm2EEcvhEv W
_ZNK4Tins10small_uintILm3EEcvhEv W
_ZNK4Tins10small_uintILm4EEcvhEv W
_ZNK4Tins10small_uintILm7EEcvhEv W
_ZNK4Tins11IPv4Address10is_privateEv T
_ZNK4Tins11IPv4Address10is_unicastEv T
_ZNK4Tins11IPv4Address11is_loopbackEv T
_ZNK4Tins11IPv4Address12is_broadcastEv T
_ZNK4Tins11IPv4Address12is_multicastEv T
_ZNK4Tins11IPv4Address9to_stringEv T
_ZNK4Tins11IPv4AddressanERKS0_ T
_ZNK4Tins11IPv4AddresscoEv T
_ZNK4Tins11IPv4AddresscvjEv T
_ZNK4Tins11IPv4AddresseqERKS0_ W
_ZNK4Tins11IPv4AddressgtERKS0_ W
_ZNK4Tins11IPv4AddressltERKS0_ W
_ZNK4Tins11IPv4AddressorERKS0_ T
_ZNK4Tins11IPv6Address11is_loopbackEv T
_ZNK4Tins11IPv6Address12is_multicastEv T
_ZNK4Tins11IPv6Address16is_local_unicastEv T
_ZNK4Tins11IPv6Address3endEv W
_ZNK4Tins11IPv6Address4copyIPhEET_S3_ W
_ZNK4Tins11IPv6Address5beginEv W
_ZNK4Tins11IPv6Address9to_stringEv T
_ZNK4Tins11IPv6AddressanERKS0_ T
_ZNK4Tins11IPv6AddresscoEv T
_ZNK4Tins11IPv6AddresseqERKS0_ W
_ZNK4Tins11IPv6AddressgtERKS0_ W
_ZNK4Tins11IPv6AddressltERKS0_ W
_ZNK4Tins11IPv6AddressorERKS0_ T
_ZNK4Tins11PDUIteratordeEv T
_ZNK4Tins11PDUIteratorptEv T
_ZNK4Tins12AddressRangeINS_11IPv4AddressEE8containsERKS1_ W
_ZNK4Tins12AddressRangeINS_11IPv6AddressEE8containsERKS1_ W
_ZNK4Tins12PacketSender17default_interfaceEv T
_ZNK4Tins12PacketSender24ether_socket_initializedERKNS_16NetworkInterfaceE T
_ZNK4Tins13ICMPExtension4sizeEv T
_ZNK4Tins13ICMPExtension7payloadEv W
_ZNK4Tins13ICMPExtension9serializeEPhj T
_ZNK4Tins13ICMPExtension9serializeEv T
_ZNK4Tins15IPv4Reassembler17make_address_pairENS_11IPv4AddressES1_ T
_ZNK4Tins15IPv4Reassembler8make_keyEPKNS_2IPE T
_ZNK4Tins15value_too_large4whatEv W
_ZNK4Tins16ConstPDUIteratordeEv T
_ZNK4Tins16ConstPDUIteratorptEv T
_ZNK4Tins16NetworkInterface10hw_addressEv T
_ZNK4Tins16NetworkInterface11is_loopbackEv T
_ZNK4Tins16NetworkInterface12ipv4_addressEv T
_ZNK4Tins16NetworkInterface13friendly_nameEv T
_ZNK4Tins16NetworkInterface14ipv4_broadcastEv T
_ZNK4Tins16NetworkInterface14ipv6_addressesEv T
_ZNK4Tins16NetworkInterface2idEv W
_ZNK4Tins16NetworkInterface4infoEv T
_ZNK4Tins16NetworkInterface4nameEv T
_ZNK4Tins16NetworkInterface5is_upEv T
_ZNK4Tins16NetworkInterface9addressesEv T
_ZNK4Tins16NetworkInterface9ipv4_maskEv T
_ZNK4Tins16NetworkInterfacecvbEv W
_ZNK4Tins23ICMPExtensionsStructure10extensionsEv W
_ZNK4Tins23ICMPExtensionsStructure4sizeEv T
_ZNK4Tins2IP11header_sizeEv T
_ZNK4Tins2IP13is_fragmentedEv T
_ZNK4Tins2IP13search_optionENS0_17option_identifierE T
_ZNK4Tins2IP15advertised_sizeEv W
_ZNK4Tins2IP15fragment_offsetEv W
_ZNK4Tins2IP16matches_responseEPKhj T
_ZNK4Tins2IP16pad_options_sizeEj T
_ZNK4Tins2IP17option_identifiereqERKS1_ W
_ZNK4Tins2IP17stream_identifierEv T
_ZNK4Tins2IP19search_route_optionENS0_17option_identifierE T
_ZNK4Tins2IP22calculate_options_sizeEv T
_ZNK4Tins2IP22search_option_iteratorENS0_17option_identifierE T
_ZNK4Tins2IP2idEv W
_ZNK4Tins2IP5cloneEv W
_ZNK4Tins2IP5flagsEv W
_ZNK4Tins2IP7tot_lenEv W
_ZNK4Tins2IP8dst_addrEv W
_ZNK4Tins2IP8head_lenEv W
_ZNK4Tins2IP8pdu_typeEv W
_ZNK4Tins2IP8protocolEv W
_ZNK4Tins2IP8securityEv T
_ZNK4Tins2IP8src_addrEv W
_ZNK4Tins3ARP11header_sizeEv T
_ZNK4Tins3ARP14sender_hw_addrEv W
_ZNK4Tins3ARP16matches_responseEPKhj T
_ZNK4Tins3ARP5cloneEv W
_ZNK4Tins3ARP8pdu_typeEv W
_ZNK4Tins3DNS10additionalEv T
_ZNK4Tins3DNS10soa_record9serializeEv T
_ZNK4Tins3DNS11header_sizeEv T
_ZNK4Tins3DNS12compose_nameEPKhPc T
_ZNK4Tins3DNS13answers_countEv W
_ZNK4Tins3DNS15authority_countEv W
_ZNK4Tins3DNS15convert_recordsEPKhS2_RSt6vectorINS0_8resourceESaIS4_EE T
_ZNK4Tins3DNS15questions_countEv W
_ZNK4Tins3DNS16additional_countEv W
_ZNK4Tins3DNS16matches_responseEPKhj T
_ZNK4Tins3DNS17skip_to_dname_endERNS_6Memory17InputMemoryStreamE T
_ZNK4Tins3DNS19skip_to_section_endERNS_6Memory17InputMemoryStreamEj T
_ZNK4Tins3DNS5cloneEv W
_ZNK4Tins3DNS5query10query_typeEv W
_ZNK4Tins3DNS5query11query_classEv W
_ZNK4Tins3DNS5query5dnameEv W
_ZNK4Tins3DNS7answersEv T
_ZNK4Tins3DNS7queriesEv T
_ZNK4Tins3DNS8pdu_typeEv W
_ZNK4Tins3DNS8resource10preferenceEv W
_ZNK4Tins3DNS8resource10query_typeEv W
_ZNK4Tins3DNS8resource11query_classEv W
_ZNK4Tins3DNS8resource3ttlEv W
_ZNK4Tins3DNS8resource4dataEv W
_ZNK4Tins3DNS8resource5dnameEv W
_ZNK4Tins3DNS9authorityEv T
_ZNK4Tins3LLC11header_sizeEv T
_ZNK4Tins3LLC5cloneEv W
_ZNK4Tins3LLC8pdu_typeEv W
_ZNK4Tins3PDU10parent_pduEv W
_ZNK4Tins3PDU12matches_flagENS0_7PDUTypeE W
_ZNK4Tins3PDU12trailer_sizeEv W
_ZNK4Tins3PDU15advertised_sizeEv T
_ZNK4Tins3PDU16matches_responseEPKhj T
_ZNK4Tins3PDU4sizeEv T
_ZNK4Tins3PDU9inner_pduEv W
_ZNK4Tins3SLL11header_sizeEv T
_ZNK4Tins3SLL5cloneEv W
_ZNK4Tins3SLL8pdu_typeEv W
_ZNK4Tins3SLL8protocolEv W
_ZNK4Tins3STP11header_sizeEv T
_ZNK4Tins3STP5cloneEv W
_ZNK4Tins3STP7root_idEv T
_ZNK4Tins3STP8pdu_typeEv W
_ZNK4Tins3STP9bridge_idEv T
_ZNK4Tins3TCP11altchecksumEv T
_ZNK4Tins3TCP11data_offsetEv W
_ZNK4Tins3TCP11header_sizeEv T
_ZNK4Tins3TCP13search_optionENS0_11OptionTypesE T
_ZNK4Tins3TCP14generic_searchIhEET_NS0_11OptionTypesE W
_ZNK4Tins3TCP14generic_searchItEET_NS0_11OptionTypesE W
_ZNK4Tins3TCP16matches_responseEPKhj T
_ZNK4Tins3TCP16pad_options_sizeEj T
_ZNK4Tins3TCP18has_sack_permittedEv T
_ZNK4Tins3TCP22calculate_options_sizeEv T
_ZNK4Tins3TCP22search_option_iteratorENS0_11OptionTypesE T
_ZNK4Tins3TCP3mssEv T
_ZNK4Tins3TCP4sackEv T
_ZNK4Tins3TCP5cloneEv W
_ZNK4Tins3TCP5flagsEv T
_ZNK4Tins3TCP8get_flagENS0_5FlagsE T
_ZNK4Tins3TCP8pdu_typeEv W
_ZNK4Tins3TCP8winscaleEv T
_ZNK4Tins3TCP9has_flagsENS_10small_uintILm12EEE T
_ZNK4Tins3TCP9timestampEv T
_ZNK4Tins3UDP11header_sizeEv T
_ZNK4Tins3UDP16matches_responseEPKhj T
_ZNK4Tins3UDP5cloneEv W
_ZNK4Tins3UDP8pdu_typeEv W
_ZNK4Tins4DHCP10lease_timeEv T
_ZNK4Tins4DHCP11domain_nameEv T
_ZNK4Tins4DHCP11header_sizeEv T
_ZNK4Tins4DHCP11rebind_timeEv T
_ZNK4Tins4DHCP11subnet_maskEv T
_ZNK4Tins4DHCP12renewal_timeEv T
_ZNK4Tins4DHCP12requested_ipEv T
_ZNK4Tins4DHCP13search_optionENS0_11OptionTypesE T
_ZNK4Tins4DHCP17server_identifierEv T
_ZNK4Tins4DHCP18search_and_convertIhEET_NS0_11OptionTypesE W
_ZNK4Tins4DHCP18search_and_convertIjEET_NS0_11OptionTypesE W
_ZNK4Tins4DHCP18search_and_convertINS_11IPv4AddressEEET_NS0_11OptionTypesE W
_ZNK4Tins4DHCP18search_and_convertISsEET_NS0_11OptionTypesE W
_ZNK4Tins4DHCP18search_and_convertISt6vectorINS_11IPv4AddressESaIS3_EEEET_NS0_11OptionTypesE W
_ZNK4Tins4DHCP19domain_name_serversEv T
_ZNK4Tins4DHCP22search_option_iteratorENS0_11OptionTypesE T
_ZNK4Tins4DHCP4typeEv T
_ZNK4Tins4DHCP5cloneEv W
_ZNK4Tins4DHCP7routersEv T
_ZNK4Tins4DHCP8hostnameEv T
_ZNK4Tins4DHCP8pdu_typeEv W
_ZNK4Tins4DHCP9broadcastEv T
_ZNK4Tins4Dot311header_sizeEv T
_ZNK4Tins4Dot316matches_responseEPKhj T
_ZNK4Tins4Dot35cloneEv W
_ZNK4Tins4Dot38dst_addrEv W
_ZNK4Tins4Dot38pdu_typeEv W
_ZNK4Tins4ICMP11header_sizeEv T
_ZNK4Tins4ICMP12address_maskEv W
_ZNK4Tins4ICMP12trailer_sizeEv T
_ZNK4Tins4ICMP14has_extensionsEv W
_ZNK4Tins4ICMP16matches_responseEPKhj T
_ZNK4Tins4ICMP17receive_timestampEv W
_ZNK4Tins4ICMP18original_timestampEv W
_ZNK4Tins4ICMP18transmit_timestampEv W
_ZNK4Tins4ICMP22are_extensions_allowedEv T
_ZNK4Tins4ICMP27get_adjusted_inner_pdu_sizeEv T
_ZNK4Tins4ICMP4typeEv W
_ZNK4Tins4ICMP5cloneEv W
_ZNK4Tins4ICMP6lengthEv W
_ZNK4Tins4ICMP8pdu_typeEv W
_ZNK4Tins4IPv611header_sizeEv T
_ZNK4Tins4IPv613search_headerENS0_15ExtensionHeaderE T
_ZNK4Tins4IPv614payload_lengthEv W
_ZNK4Tins4IPv616matches_responseEPKhj T
_ZNK4Tins4IPv622calculate_headers_sizeEv T
_ZNK4Tins4IPv65cloneEv W
_ZNK4Tins4IPv68dst_addrEv W
_ZNK4Tins4IPv68pdu_typeEv W
_ZNK4Tins4IPv68src_addrEv W
_ZNK4Tins4MPLS11header_sizeEv T
_ZNK4Tins4MPLS15bottom_of_stackEv W
_ZNK4Tins4MPLS5cloneEv W
_ZNK4Tins4MPLS8pdu_typeEv W
_ZNK4Tins4SNAP11header_sizeEv T
_ZNK4Tins4SNAP5cloneEv W
_ZNK4Tins4SNAP7controlEv W
_ZNK4Tins4SNAP8eth_typeEv W
_ZNK4Tins4SNAP8pdu_typeEv W
_ZNK4Tins5BootP11header_sizeEv T
_ZNK4Tins5BootP16matches_responseEPKhj T
_ZNK4Tins5BootP4vendEv W
_ZNK4Tins5BootP5cloneEv W
_ZNK4Tins5BootP8pdu_typeEv W
_ZNK4Tins5Dot1Q11header_sizeEv T
_ZNK4Tins5Dot1Q12payload_typeEv W
_ZNK4Tins5Dot1Q12trailer_sizeEv T
_ZNK4Tins5Dot1Q16matches_responseEPKhj T
_ZNK4Tins5Dot1Q5cloneEv W
_ZNK4Tins5Dot1Q8pdu_typeEv W
_ZNK4Tins5EAPOL8pdu_typeEv W
_ZNK4Tins5PPPoE10search_tagENS0_8TagTypesE T
_ZNK4Tins5PPPoE11header_sizeEv T
_ZNK4Tins5PPPoE12service_nameEv T
_ZNK4Tins5PPPoE13generic_errorEv T
_ZNK4Tins5PPPoE14payload_lengthEv W
_ZNK4Tins5PPPoE15ac_system_errorEv T
_ZNK4Tins5PPPoE15vendor_specificEv T
_ZNK4Tins5PPPoE16relay_session_idEv T
_ZNK4Tins5PPPoE18search_and_convertISsEET_NS0_8TagTypesE W
_ZNK4Tins5PPPoE18search_and_convertISt6vectorIhSaIhEEEET_NS0_8TagTypesE W
_ZNK4Tins5PPPoE18service_name_errorEv T
_ZNK4Tins5PPPoE4codeEv W
_ZNK4Tins5PPPoE5cloneEv W
_ZNK4Tins5PPPoE7ac_nameEv T
_ZNK4Tins5PPPoE8pdu_typeEv W
_ZNK4Tins5PPPoE9ac_cookieEv T
_ZNK4Tins5PPPoE9host_uniqEv T
_ZNK4Tins6DHCPv610ia_addressEv T
_ZNK4Tins6DHCPv610preferenceEv T
_ZNK4Tins6DHCPv610user_classEv T
_ZNK4Tins6DHCPv611header_sizeEv T
_ZNK4Tins6DHCPv611status_codeEv T
_ZNK4Tins6DHCPv611vendor_infoEv T
_ZNK4Tins6DHCPv612elapsed_timeEv T
_ZNK4Tins6DHCPv612interface_idEv T
_ZNK4Tins6DHCPv612vendor_classEv T
_ZNK4Tins6DHCPv612write_optionERKNS_9PDUOptionItS0_EERNS_6Memory18OutputMemoryStreamE T
_ZNK4Tins6DHCPv613relay_messageEv T
_ZNK4Tins6DHCPv613search_optionENS0_11OptionTypesE T
_ZNK4Tins6DHCPv614authenticationEv T
_ZNK4Tins6DHCPv614option_requestEv T
_ZNK4Tins6DHCPv614server_unicastEv T
_ZNK4Tins6DHCPv615reconfigure_msgEv T
_ZNK4Tins6DHCPv616has_rapid_commitEv T
_ZNK4Tins6DHCPv616is_relay_messageEv T
_ZNK4Tins6DHCPv616matches_responseEPKhj T
_ZNK4Tins6DHCPv618search_and_convertIhEET_NS0_11OptionTypesE W
_ZNK4Tins6DHCPv618search_and_convertINS0_10ia_na_typeEEET_NS0_11OptionTypesE W
_ZNK4Tins6DHCPv618search_and_convertINS0_10ia_ta_typeEEET_NS0_11OptionTypesE W
_ZNK4Tins6DHCPv618search_and_convertINS0_15ia_address_typeEEET_NS0_11OptionTypesE W
_ZNK4Tins6DHCPv618search_and_convertINS0_15user_class_typeEEET_NS0_11OptionTypesE W
_ZNK4Tins6DHCPv618search_and_convertINS0_16status_code_typeEEET_NS0_11OptionTypesE W
_ZNK4Tins6DHCPv618search_and_convertINS0_16vendor_info_typeEEET_NS0_11OptionTypesE W
_ZNK4Tins6DHCPv618search_and_convertINS0_17vendor_class_typeEEET_NS0_11OptionTypesE W
_ZNK4Tins6DHCPv618search_and_convertINS0_19authentication_typeEEET_NS0_11OptionTypesE W
_ZNK4Tins6DHCPv618search_and_convertINS0_9duid_typeEEET_NS0_11OptionTypesE W
_ZNK4Tins6DHCPv618search_and_convertINS_11IPv6AddressEEET_NS0_11OptionTypesE W
_ZNK4Tins6DHCPv618search_and_convertISt6vectorIhSaIhEEEET_NS0_11OptionTypesE W
_ZNK4Tins6DHCPv618search_and_convertISt6vectorItSaItEEEET_NS0_11OptionTypesE W
_ZNK4Tins6DHCPv618search_and_convertItEET_NS0_11OptionTypesE W
_ZNK4Tins6DHCPv622has_reconfigure_acceptEv T
_ZNK4Tins6DHCPv622search_option_iteratorENS0_11OptionTypesE T
_ZNK4Tins6DHCPv65cloneEv W
_ZNK4Tins6DHCPv65ia_naEv T
_ZNK4Tins6DHCPv65ia_taEv T
_ZNK4Tins6DHCPv67duid_en9serializeEv T
_ZNK4Tins6DHCPv67duid_ll9serializeEv T
_ZNK4Tins6DHCPv68duid_llt9serializeEv T
_ZNK4Tins6DHCPv68msg_typeEv W
_ZNK4Tins6DHCPv68pdu_typeEv W
_ZNK4Tins6DHCPv69client_idEv T
_ZNK4Tins6DHCPv69server_idEv T
_ZNK4Tins6ICMPv610route_infoEv T
_ZNK4Tins6ICMPv611has_optionsEv T
_ZNK4Tins6ICMPv611header_sizeEv T
_ZNK4Tins6ICMPv611prefix_infoEv T
_ZNK4Tins6ICMPv612trailer_sizeEv T
_ZNK4Tins6ICMPv613has_dest_addrEv W
_ZNK4Tins6ICMPv613rsa_signatureEv T
_ZNK4Tins6ICMPv613search_optionENS0_11OptionTypesE T
_ZNK4Tins6ICMPv614has_extensionsEv W
_ZNK4Tins6ICMPv614shortcut_limitEv T
_ZNK4Tins6ICMPv615dns_search_listEv T
_ZNK4Tins6ICMPv615has_target_addrEv W
_ZNK4Tins6ICMPv615link_layer_addrEv T
_ZNK4Tins6ICMPv615redirect_headerEv T
_ZNK4Tins6ICMPv616matches_responseEPKhj T
_ZNK4Tins6ICMPv616search_addr_listENS0_11OptionTypesE T
_ZNK4Tins6ICMPv616source_addr_listEv T
_ZNK4Tins6ICMPv616target_addr_listEv T
_ZNK4Tins6ICMPv618handover_key_replyEv T
_ZNK4Tins6ICMPv618search_and_convertINS0_10naack_typeEEET_NS0_11OptionTypesE W
_ZNK4Tins6ICMPv618search_and_convertINS0_11lladdr_typeEEET_NS0_11OptionTypesE W
_ZNK4Tins6ICMPv618search_and_convertINS0_13rsa_sign_typeEEET_NS0_11OptionTypesE W
_ZNK4Tins6ICMPv618search_and_convertINS0_14addr_list_typeEEET_NS0_11OptionTypesE W
_ZNK4Tins6ICMPv618search_and_convertINS0_14ip_prefix_typeEEET_NS0_11OptionTypesE W
_ZNK4Tins6ICMPv618search_and_convertINS0_14timestamp_typeEEET_NS0_11OptionTypesE W
_ZNK4Tins6ICMPv618search_and_convertINS0_15route_info_typeEEET_NS0_11OptionTypesE W
_ZNK4Tins6ICMPv618search_and_convertINS0_16prefix_info_typeEEET_NS0_11OptionTypesE W
_ZNK4Tins6ICMPv618search_and_convertINS0_18recursive_dns_typeEEET_NS0_11OptionTypesE W
_ZNK4Tins6ICMPv618search_and_convertINS0_19mobile_node_id_typeEEET_NS0_11OptionTypesE W
_ZNK4Tins6ICMPv618search_and_convertINS0_19shortcut_limit_typeEEET_NS0_11OptionTypesE W
_ZNK4Tins6ICMPv618search_and_convertINS0_20dns_search_list_typeEEET_NS0_11OptionTypesE W
_ZNK4Tins6ICMPv618search_and_convertINS0_21handover_key_req_typeEEET_NS0_11OptionTypesE W
_ZNK4Tins6ICMPv618search_and_convertINS0_23handover_key_reply_typeEEET_NS0_11OptionTypesE W
_ZNK4Tins6ICMPv618search_and_convertINS0_24new_advert_interval_typeEEET_NS0_11OptionTypesE W
_ZNK4Tins6ICMPv618search_and_convertINS0_25handover_assist_info_typeEEET_NS0_11OptionTypesE W
_ZNK4Tins6ICMPv618search_and_convertINS0_8map_typeEEET_NS0_11OptionTypesE W
_ZNK4Tins6ICMPv618search_and_convertINS_9HWAddressILm6EEEEET_NS0_11OptionTypesE W
_ZNK4Tins6ICMPv618search_and_convertISt4pairItjEEET_NS0_11OptionTypesE W
_ZNK4Tins6ICMPv618search_and_convertISt6vectorIhSaIhEEEET_NS0_11OptionTypesE W
_ZNK4Tins6ICMPv618search_and_convertISt6vectorItSaItEEEET_NS0_11OptionTypesE W
_ZNK4Tins6ICMPv619new_advert_intervalEv T
_ZNK4Tins6ICMPv619new_home_agent_infoEv T
_ZNK4Tins6ICMPv620handover_assist_infoEv T
_ZNK4Tins6ICMPv620handover_key_requestEv T
_ZNK4Tins6ICMPv621recursive_dns_serversEv T
_ZNK4Tins6ICMPv622are_extensions_allowedEv T
_ZNK4Tins6ICMPv622mobile_node_identifierEv T
_ZNK4Tins6ICMPv622search_option_iteratorENS0_11OptionTypesE T
_ZNK4Tins6ICMPv622source_link_layer_addrEv T
_ZNK4Tins6ICMPv622target_link_layer_addrEv T
_ZNK4Tins6ICMPv624multicast_address_record4sizeEv T
_ZNK4Tins6ICMPv624multicast_address_record9serializeEPhj T
_ZNK4Tins6ICMPv627get_adjusted_inner_pdu_sizeEv T
_ZNK4Tins6ICMPv63mapEv T
_ZNK4Tins6ICMPv63mtuEv T
_ZNK4Tins6ICMPv64typeEv W
_ZNK4Tins6ICMPv65cloneEv W
_ZNK4Tins6ICMPv65naackEv T
_ZNK4Tins6ICMPv65nonceEv T
_ZNK4Tins6ICMPv66lengthEv W
_ZNK4Tins6ICMPv68pdu_typeEv W
_ZNK4Tins6ICMPv69ip_prefixEv T
_ZNK4Tins6ICMPv69timestampEv T
_ZNK4Tins6Memory17InputMemoryStream4sizeEv W
_ZNK4Tins6Memory17InputMemoryStream7pointerEv W
_ZNK4Tins6Memory17InputMemoryStream8can_readEm W
_ZNK4Tins6Memory17InputMemoryStreamcvbEv W
_ZNK4Tins6Memory18OutputMemoryStream4sizeEv W
_ZNK4Tins6Packet3pduEv W
_ZNK4Tins6RawPDU11header_sizeEv T
_ZNK4Tins6RawPDU16matches_responseEPKhj T
_ZNK4Tins6RawPDU5cloneEv W
_ZNK4Tins6RawPDU8pdu_typeEv W
_ZNK4Tins7IPSecAH11header_sizeEv T
_ZNK4Tins7IPSecAH11next_headerEv W
_ZNK4Tins7IPSecAH5cloneEv W
_ZNK4Tins7IPSecAH6lengthEv W
_ZNK4Tins7IPSecAH8pdu_typeEv W
_ZNK4Tins8IPSecESP11header_sizeEv T
_ZNK4Tins8IPSecESP5cloneEv W
_ZNK4Tins8IPSecESP8pdu_typeEv W
_ZNK4Tins8Loopback11header_sizeEv T
_ZNK4Tins8Loopback16matches_responseEPKhj T
_ZNK4Tins8Loopback5cloneEv W
_ZNK4Tins8Loopback8pdu_typeEv W
_ZNK4Tins8RC4EAPOL10key_lengthEv W
_ZNK4Tins8RC4EAPOL11header_sizeEv T
_ZNK4Tins8RC4EAPOL12matches_flagENS_3PDU7PDUTypeE W
_ZNK4Tins8RC4EAPOL5cloneEv W
_ZNK4Tins8RC4EAPOL8pdu_typeEv W
_ZNK4Tins8RSNEAPOL10wpa_lengthEv W
_ZNK4Tins8RSNEAPOL11header_sizeEv T
_ZNK4Tins8RSNEAPOL12matches_flagENS_3PDU7PDUTypeE W
_ZNK4Tins8RSNEAPOL5cloneEv W
_ZNK4Tins8RSNEAPOL8pdu_typeEv W
_ZNK4Tins9HWAddressILm6EE10is_unicastEv W
_ZNK4Tins9HWAddressILm6EE12is_broadcastEv W
_ZNK4Tins9HWAddressILm6EE12is_multicastEv W
_ZNK4Tins9HWAddressILm6EE3endEv W
_ZNK4Tins9HWAddressILm6EE4copyIPhEET_S4_ W
_ZNK4Tins9HWAddressILm6EE4sizeEv W
_ZNK4Tins9HWAddressILm6EE5beginEv W
_ZNK4Tins9HWAddressILm6EEeqERKS1_ W
_ZNK4Tins9HWAddressILm8EE3endEv W
_ZNK4Tins9HWAddressILm8EE4copyIPhEET_S4_ W
_ZNK4Tins9HWAddressILm8EE5beginEv W
_ZNK4Tins9Internals10IPv4Stream11is_completeEv T
_ZNK4Tins9Internals10IPv4Stream12allocate_pduEv T
_ZNK4Tins9Internals10IPv4Stream14first_fragmentEv T
_ZNK4Tins9Internals12IPv4Fragment6offsetEv W
_ZNK4Tins9Internals12IPv4Fragment7payloadEv W
_ZNK4Tins9PDUOptionIhNS_3TCPEE12length_fieldEv W
_ZNK4Tins9PDUOptionIhNS_3TCPEE2toIhEET_v W
_ZNK4Tins9PDUOptionIhNS_3TCPEE2toISt4pairIjjEEET_v W
_ZNK4Tins9PDUOptionIhNS_3TCPEE2toISt6vectorIjSaIjEEEET_v W
_ZNK4Tins9PDUOptionIhNS_3TCPEE2toItEET_v W
_ZNK4Tins9PDUOptionIhNS_3TCPEE6optionEv W
_ZNK4Tins9PDUOptionIhNS_3TCPEE8data_ptrEv W
_ZNK4Tins9PDUOptionIhNS_3TCPEE9data_sizeEv W
_ZNK4Tins9PDUOptionIhNS_4DHCPEE12length_fieldEv W
_ZNK4Tins9PDUOptionIhNS_4DHCPEE2toIhEET_v W
_ZNK4Tins9PDUOptionIhNS_4DHCPEE2toIjEET_v W
_ZNK4Tins9PDUOptionIhNS_4DHCPEE2toINS_11IPv4AddressEEET_v W
_ZNK4Tins9PDUOptionIhNS_4DHCPEE2toISsEET_v W
_ZNK4Tins9PDUOptionIhNS_4DHCPEE2toISt6vectorINS_11IPv4AddressESaIS5_EEEET_v W
_ZNK4Tins9PDUOptionIhNS_4DHCPEE6optionEv W
_ZNK4Tins9PDUOptionIhNS_4DHCPEE8data_ptrEv W
_ZNK4Tins9PDUOptionIhNS_4DHCPEE9data_sizeEv W
_ZNK4Tins9PDUOptionIhNS_4IPv6EE12length_fieldEv W
_ZNK4Tins9PDUOptionIhNS_4IPv6EE6optionEv W
_ZNK4Tins9PDUOptionIhNS_4IPv6EE8data_ptrEv W
_ZNK4Tins9PDUOptionIhNS_4IPv6EE9data_sizeEv W
_ZNK4Tins9PDUOptionIhNS_6ICMPv6EE12length_fieldEv W
_ZNK4Tins9PDUOptionIhNS_6ICMPv6EE2toINS1_10naack_typeEEET_v W
_ZNK4Tins9PDUOptionIhNS_6ICMPv6EE2toINS1_11lladdr_typeEEET_v W
_ZNK4Tins9PDUOptionIhNS_6ICMPv6EE2toINS1_13rsa_sign_typeEEET_v W
_ZNK4Tins9PDUOptionIhNS_6ICMPv6EE2toINS1_14addr_list_typeEEET_v W
_ZNK4Tins9PDUOptionIhNS_6ICMPv6EE2toINS1_14ip_prefix_typeEEET_v W
_ZNK4Tins9PDUOptionIhNS_6ICMPv6EE2toINS1_14timestamp_typeEEET_v W
_ZNK4Tins9PDUOptionIhNS_6ICMPv6EE2toINS1_15route_info_typeEEET_v W
_ZNK4Tins9PDUOptionIhNS_6ICMPv6EE2toINS1_16prefix_info_typeEEET_v W
_ZNK4Tins9PDUOptionIhNS_6ICMPv6EE2toINS1_18recursive_dns_typeEEET_v W
_ZNK4Tins9PDUOptionIhNS_6ICMPv6EE2toINS1_19mobile_node_id_typeEEET_v W
_ZNK4Tins9PDUOptionIhNS_6ICMPv6EE2toINS1_19shortcut_limit_typeEEET_v W
_ZNK4Tins9PDUOptionIhNS_6ICMPv6EE2toINS1_20dns_search_list_typeEEET_v W
_ZNK4Tins9PDUOptionIhNS_6ICMPv6EE2toINS1_21handover_key_req_typeEEET_v W
_ZNK4Tins9PDUOptionIhNS_6ICMPv6EE2toINS1_23handover_key_reply_typeEEET_v W
_ZNK4Tins9PDUOptionIhNS_6ICMPv6EE2toINS1_24new_advert_interval_typeEEET_v W
_ZNK4Tins9PDUOptionIhNS_6ICMPv6EE2toINS1_25handover_assist_info_typeEEET_v W
_ZNK4Tins9PDUOptionIhNS_6ICMPv6EE2toINS1_8map_typeEEET_v W
_ZNK4Tins9PDUOptionIhNS_6ICMPv6EE2toINS_9HWAddressILm6EEEEET_v W
_ZNK4Tins9PDUOptionIhNS_6ICMPv6EE2toISt4pairItjEEET_v W
_ZNK4Tins9PDUOptionIhNS_6ICMPv6EE2toISt6vectorIhSaIhEEEET_v W
_ZNK4Tins9PDUOptionIhNS_6ICMPv6EE2toISt6vectorItSaItEEEET_v W
_ZNK4Tins9PDUOptionIhNS_6ICMPv6EE6optionEv W
_ZNK4Tins9PDUOptionIhNS_6ICMPv6EE8data_ptrEv W
_ZNK4Tins9PDUOptionIhNS_6ICMPv6EE9data_sizeEv W
_ZNK4Tins9PDUOptionINS_2IP17option_identifierES1_E12length_fieldEv W
_ZNK4Tins9PDUOptionINS_2IP17option_identifierES1_E2toINS1_13security_typeEEET_v W
_ZNK4Tins9PDUOptionINS_2IP17option_identifierES1_E2toINS1_25generic_route_option_typeEEET_v W
_ZNK4Tins9PDUOptionINS_2IP17option_identifierES1_E2toItEET_v W
_ZNK4Tins9PDUOptionINS_2IP17option_identifierES1_E6optionEv W
_ZNK4Tins9PDUOptionINS_2IP17option_identifierES1_E8data_ptrEv W
_ZNK4Tins9PDUOptionINS_2IP17option_identifierES1_E9data_sizeEv W
_ZNK4Tins9PDUOptionINS_5PPPoE8TagTypesES1_E12length_fieldEv W
_ZNK4Tins9PDUOptionINS_5PPPoE8TagTypesES1_E2toINS1_16vendor_spec_typeEEET_v W
_ZNK4Tins9PDUOptionINS_5PPPoE8TagTypesES1_E2toISsEET_v W
_ZNK4Tins9PDUOptionINS_5PPPoE8TagTypesES1_E2toISt6vectorIhSaIhEEEET_v W
_ZNK4Tins9PDUOptionINS_5PPPoE8TagTypesES1_E6optionEv W
_ZNK4Tins9PDUOptionINS_5PPPoE8TagTypesES1_E8data_ptrEv W
_ZNK4Tins9PDUOptionINS_5PPPoE8TagTypesES1_E9data_sizeEv W
_ZNK4Tins9PDUOptionItNS_6DHCPv6EE12length_fieldEv W
_ZNK4Tins9PDUOptionItNS_6DHCPv6EE2toIhEET_v W
_ZNK4Tins9PDUOptionItNS_6DHCPv6EE2toINS1_10ia_na_typeEEET_v W
_ZNK4Tins9PDUOptionItNS_6DHCPv6EE2toINS1_10ia_ta_typeEEET_v W
_ZNK4Tins9PDUOptionItNS_6DHCPv6EE2toINS1_15ia_address_typeEEET_v W
_ZNK4Tins9PDUOptionItNS_6DHCPv6EE2toINS1_15user_class_typeEEET_v W
_ZNK4Tins9PDUOptionItNS_6DHCPv6EE2toINS1_16status_code_typeEEET_v W
_ZNK4Tins9PDUOptionItNS_6DHCPv6EE2toINS1_16vendor_info_typeEEET_v W
_ZNK4Tins9PDUOptionItNS_6DHCPv6EE2toINS1_17vendor_class_typeEEET_v W
_ZNK4Tins9PDUOptionItNS_6DHCPv6EE2toINS1_19authentication_typeEEET_v W
_ZNK4Tins9PDUOptionItNS_6DHCPv6EE2toINS_11IPv6AddressEEET_v W
_ZNK4Tins9PDUOptionItNS_6DHCPv6EE2toINS1_9duid_typeEEET_v W
_ZNK4Tins9PDUOptionItNS_6DHCPv6EE2toISt6vectorIhSaIhEEEET_v W
_ZNK4Tins9PDUOptionItNS_6DHCPv6EE2toISt6vectorItSaItEEEET_v W
_ZNK4Tins9PDUOptionItNS_6DHCPv6EE2toItEET_v W
_ZNK4Tins9PDUOptionItNS_6DHCPv6EE6optionEv W
_ZNK4Tins9PDUOptionItNS_6DHCPv6EE8data_ptrEv W
_ZNK4Tins9PDUOptionItNS_6DHCPv6EE9data_sizeEv W
_ZNK4Tins9Timestamp12microsecondsEv T
_ZNK4Tins9Timestamp7secondsEv T
_ZNK9__gnu_cxx13new_allocatorIfE8max_sizeEv W
_ZNK9__gnu_cxx13new_allocatorIhE8max_sizeEv W
_ZNK9__gnu_cxx13new_allocatorIiE8max_sizeEv W
_ZNK9__gnu_cxx13new_allocatorIjE8max_sizeEv W
_ZNK9__gnu_cxx13new_allocatorIN4Tins11IPv4AddressEE8max_sizeEv W
_ZNK9__gnu_cxx13new_allocatorIN4Tins11IPv6AddressEE8max_sizeEv W
_ZNK9__gnu_cxx13new_allocatorIN4Tins13ICMPExtensionEE8max_sizeEv W
_ZNK9__gnu_cxx13new_allocatorIN4Tins16NetworkInterface10IPv6PrefixEE8max_sizeEv W
_ZNK9__gnu_cxx13new_allocatorIN4Tins16NetworkInterfaceEE8max_sizeEv W
_ZNK9__gnu_cxx13new_allocatorIN4Tins3DNS5queryEE8max_sizeEv W
_ZNK9__gnu_cxx13new_allocatorIN4Tins3DNS8resourceEE8max_sizeEv W
_ZNK9__gnu_cxx13new_allocatorIN4Tins5Utils10RouteEntryEE8max_sizeEv W
_ZNK9__gnu_cxx13new_allocatorIN4Tins5Utils11Route6EntryEE8max_sizeEv W
_ZNK9__gnu_cxx13new_allocatorIN4Tins6ICMPv624multicast_address_recordEE8max_sizeEv W
_ZNK9__gnu_cxx13new_allocatorIN4Tins9Internals12IPv4FragmentEE8max_sizeEv W
_ZNK9__gnu_cxx13new_allocatorIN4Tins9PDUOptionIhNS1_3TCPEEEE8max_sizeEv W
_ZNK9__gnu_cxx13new_allocatorIN4Tins9PDUOptionIhNS1_4DHCPEEEE8max_sizeEv W
_ZNK9__gnu_cxx13new_allocatorIN4Tins9PDUOptionIhNS1_4IPv6EEEE8max_sizeEv W
_ZNK9__gnu_cxx13new_allocatorIN4Tins9PDUOptionIhNS1_6ICMPv6EEEE8max_sizeEv W
_ZNK9__gnu_cxx13new_allocatorIN4Tins9PDUOptionINS1_2IP17option_identifierES3_EEE8max_sizeEv W
_ZNK9__gnu_cxx13new_allocatorIN4Tins9PDUOptionINS1_5PPPoE8TagTypesES3_EEE8max_sizeEv W
_ZNK9__gnu_cxx13new_allocatorIN4Tins9PDUOptionItNS1_6DHCPv6EEEE8max_sizeEv W
_ZNK9__gnu_cxx13new_allocatorISsE8max_sizeEv W
_ZNK9__gnu_cxx13new_allocatorISt13_Rb_tree_nodeISsEE8max_sizeEv W
_ZNK9__gnu_cxx13new_allocatorISt13_Rb_tree_nodeISt4pairIKN4Tins12PacketSender10SocketTypeEiEEE8max_sizeEv W
_ZNK9__gnu_cxx13new_allocatorISt13_Rb_tree_nodeISt4pairIKS2_ItS2_IN4Tins11IPv4AddressES4_EENS3_9Internals10IPv4StreamEEEE8max_sizeEv W
_ZNK9__gnu_cxx13new_allocatorISt4pairIhhEE8max_sizeEv W
_ZNK9__gnu_cxx13new_allocatorISt4pairIhSt6vectorIhSaIhEEEE8max_sizeEv W
_ZNK9__gnu_cxx13new_allocatorISt4pairIPjjEE8max_sizeEv W
_ZNK9__gnu_cxx13new_allocatorISt6vectorIhSaIhEEE8max_sizeEv W
_ZNK9__gnu_cxx13new_allocatorItE8max_sizeEv W
_ZNK9__gnu_cxx17__normal_iteratorIPcSsE4baseEv W
_ZNK9__gnu_cxx17__normal_iteratorIPcSsEdeEv W
_ZNK9__gnu_cxx17__normal_iteratorIPfSt6vectorIfSaIfEEE4baseEv W
_ZNK9__gnu_cxx17__normal_iteratorIPfSt6vectorIfSaIfEEEdeEv W
_ZNK9__gnu_cxx17__normal_iteratorIPhSt6vectorIhSaIhEEE4baseEv W
_ZNK9__gnu_cxx17__normal_iteratorIPhSt6vectorIhSaIhEEEdeEv W
_ZNK9__gnu_cxx17__normal_iteratorIPhSt6vectorIhSaIhEEEplERKl W
_ZNK9__gnu_cxx17__normal_iteratorIPiSt6vectorIiSaIiEEE4baseEv W
_ZNK9__gnu_cxx17__normal_iteratorIPiSt6vectorIiSaIiEEEdeEv W
_ZNK9__gnu_cxx17__normal_iteratorIPjSt6vectorIjSaIjEEEdeEv W
_ZNK9__gnu_cxx17__normal_iteratorIPKcSsE4baseEv W
_ZNK9__gnu_cxx17__normal_iteratorIPKcSsEdeEv W
_ZNK9__gnu_cxx17__normal_iteratorIPKcSsEplERKl W
_ZNK9__gnu_cxx17__normal_iteratorIPKhSt6vectorIhSaIhEEE4baseEv W
_ZNK9__gnu_cxx17__normal_iteratorIPKhSt6vectorIhSaIhEEEdeEv W
_ZNK9__gnu_cxx17__normal_iteratorIPKiSt6vectorIiSaIiEEE4baseEv W
_ZNK9__gnu_cxx17__normal_iteratorIPKiSt6vectorIiSaIiEEEdeEv W
_ZNK9__gnu_cxx17__normal_iteratorIPKjSt6vectorIjSaIjEEE4baseEv W
_ZNK9__gnu_cxx17__normal_iteratorIPKjSt6vectorIjSaIjEEEdeEv W
_ZNK9__gnu_cxx17__normal_iteratorIPKN4Tins11IPv4AddressESt6vectorIS2_SaIS2_EEE4baseEv W
_ZNK9__gnu_cxx17__normal_iteratorIPKN4Tins11IPv4AddressESt6vectorIS2_SaIS2_EEEdeEv W
_ZNK9__gnu_cxx17__normal_iteratorIPKN4Tins11IPv6AddressESt6vectorIS2_SaIS2_EEE4baseEv W
_ZNK9__gnu_cxx17__normal_iteratorIPKN4Tins11IPv6AddressESt6vectorIS2_SaIS2_EEEdeEv W
_ZNK9__gnu_cxx17__normal_iteratorIPKN4Tins13ICMPExtensionESt6vectorIS2_SaIS2_EEE4baseEv W
_ZNK9__gnu_cxx17__normal_iteratorIPKN4Tins13ICMPExtensionESt6vectorIS2_SaIS2_EEEdeEv W
_ZNK9__gnu_cxx17__normal_iteratorIPKN4Tins13ICMPExtensionESt6vectorIS2_SaIS2_EEEptEv W
_ZNK9__gnu_cxx17__normal_iteratorIPKN4Tins16NetworkInterface10IPv6PrefixESt6vectorIS3_SaIS3_EEE4baseEv W
_ZNK9__gnu_cxx17__normal_iteratorIPKN4Tins16NetworkInterface10IPv6PrefixESt6vectorIS3_SaIS3_EEEdeEv W
_ZNK9__gnu_cxx17__normal_iteratorIPKN4Tins5Utils10RouteEntryESt6vectorIS3_SaIS3_EEE4baseEv W
_ZNK9__gnu_cxx17__normal_iteratorIPKN4Tins5Utils10RouteEntryESt6vectorIS3_SaIS3_EEEdeEv W
_ZNK9__gnu_cxx17__normal_iteratorIPKN4Tins5Utils10RouteEntryESt6vectorIS3_SaIS3_EEEptEv W
_ZNK9__gnu_cxx17__normal_iteratorIPKN4Tins5Utils11Route6EntryESt6vectorIS3_SaIS3_EEE4baseEv W
_ZNK9__gnu_cxx17__normal_iteratorIPKN4Tins5Utils11Route6EntryESt6vectorIS3_SaIS3_EEEdeEv W
_ZNK9__gnu_cxx17__normal_iteratorIPKN4Tins5Utils11Route6EntryESt6vectorIS3_SaIS3_EEEptEv W
_ZNK9__gnu_cxx17__normal_iteratorIPKN4Tins6ICMPv624multicast_address_recordESt6vectorIS3_SaIS3_EEE4baseEv W
_ZNK9__gnu_cxx17__normal_iteratorIPKN4Tins6ICMPv624multicast_address_recordESt6vectorIS3_SaIS3_EEEdeEv W
_ZNK9__gnu_cxx17__normal_iteratorIPKN4Tins6ICMPv624multicast_address_recordESt6vectorIS3_SaIS3_EEEptEv W
_ZNK9__gnu_cxx17__normal_iteratorIPKN4Tins9Internals12IPv4FragmentESt6vectorIS3_SaIS3_EEE4baseEv W
_ZNK9__gnu_cxx17__normal_iteratorIPKN4Tins9Internals12IPv4FragmentESt6vectorIS3_SaIS3_EEEdeEv W
_ZNK9__gnu_cxx17__normal_iteratorIPKN4Tins9Internals12IPv4FragmentESt6vectorIS3_SaIS3_EEEptEv W
_ZNK9__gnu_cxx17__normal_iteratorIPKN4Tins9PDUOptionIhNS1_3TCPEEESt6vectorIS4_SaIS4_EEE4baseEv W
_ZNK9__gnu_cxx17__normal_iteratorIPKN4Tins9PDUOptionIhNS1_3TCPEEESt6vectorIS4_SaIS4_EEEdeEv W
_ZNK9__gnu_cxx17__normal_iteratorIPKN4Tins9PDUOptionIhNS1_3TCPEEESt6vectorIS4_SaIS4_EEEptEv W
_ZNK9__gnu_cxx17__normal_iteratorIPKN4Tins9PDUOptionIhNS1_4DHCPEEESt6vectorIS4_SaIS4_EEE4baseEv W
_ZNK9__gnu_cxx17__normal_iteratorIPKN4Tins9PDUOptionIhNS1_4DHCPEEESt6vectorIS4_SaIS4_EEEdeEv W
_ZNK9__gnu_cxx17__normal_iteratorIPKN4Tins9PDUOptionIhNS1_4DHCPEEESt6vectorIS4_SaIS4_EEEptEv W
_ZNK9__gnu_cxx17__normal_iteratorIPKN4Tins9PDUOptionIhNS1_4IPv6EEESt6vectorIS4_SaIS4_EEE4baseEv W
_ZNK9__gnu_cxx17__normal_iteratorIPKN4Tins9PDUOptionIhNS1_4IPv6EEESt6vectorIS4_SaIS4_EEEdeEv W
_ZNK9__gnu_cxx17__normal_iteratorIPKN4Tins9PDUOptionIhNS1_4IPv6EEESt6vectorIS4_SaIS4_EEEptEv W
_ZNK9__gnu_cxx17__normal_iteratorIPKN4Tins9PDUOptionIhNS1_6ICMPv6EEESt6vectorIS4_SaIS4_EEE4baseEv W
_ZNK9__gnu_cxx17__normal_iteratorIPKN4Tins9PDUOptionIhNS1_6ICMPv6EEESt6vectorIS4_SaIS4_EEEdeEv W
_ZNK9__gnu_cxx17__normal_iteratorIPKN4Tins9PDUOptionIhNS1_6ICMPv6EEESt6vectorIS4_SaIS4_EEEptEv W
_ZNK9__gnu_cxx17__normal_iteratorIPKN4Tins9PDUOptionINS1_2IP17option_identifierES3_EESt6vectorIS5_SaIS5_EEE4baseEv W
_ZNK9__gnu_cxx17__normal_iteratorIPKN4Tins9PDUOptionINS1_2IP17option_identifierES3_EESt6vectorIS5_SaIS5_EEEdeEv W
_ZNK9__gnu_cxx17__normal_iteratorIPKN4Tins9PDUOptionINS1_2IP17option_identifierES3_EESt6vectorIS5_SaIS5_EEEptEv W
_ZNK9__gnu_cxx17__normal_iteratorIPKN4Tins9PDUOptionINS1_5PPPoE8TagTypesES3_EESt6vectorIS5_SaIS5_EEE4baseEv W
_ZNK9__gnu_cxx17__normal_iteratorIPKN4Tins9PDUOptionINS1_5PPPoE8TagTypesES3_EESt6vectorIS5_SaIS5_EEEdeEv W
_ZNK9__gnu_cxx17__normal_iteratorIPKN4Tins9PDUOptionINS1_5PPPoE8TagTypesES3_EESt6vectorIS5_SaIS5_EEEptEv W
_ZNK9__gnu_cxx17__normal_iteratorIPKN4Tins9PDUOptionItNS1_6DHCPv6EEESt6vectorIS4_SaIS4_EEE4baseEv W
_ZNK9__gnu_cxx17__normal_iteratorIPKN4Tins9PDUOptionItNS1_6DHCPv6EEESt6vectorIS4_SaIS4_EEEdeEv W
_ZNK9__gnu_cxx17__normal_iteratorIPKN4Tins9PDUOptionItNS1_6DHCPv6EEESt6vectorIS4_SaIS4_EEEptEv W
_ZNK9__gnu_cxx17__normal_iteratorIPKSsSt6vectorISsSaISsEEE4baseEv W
_ZNK9__gnu_cxx17__normal_iteratorIPKSsSt6vectorISsSaISsEEEdeEv W
_ZNK9__gnu_cxx17__normal_iteratorIPKSsSt6vectorISsSaISsEEEptEv W
_ZNK9__gnu_cxx17__normal_iteratorIPKSt4pairIhSt6vectorIhSaIhEEES2_IS5_SaIS5_EEE4baseEv W
_ZNK9__gnu_cxx17__normal_iteratorIPKSt4pairIhSt6vectorIhSaIhEEES2_IS5_SaIS5_EEEdeEv W
_ZNK9__gnu_cxx17__normal_iteratorIPKSt4pairIPjjESt6vectorIS3_SaIS3_EEE4baseEv W
_ZNK9__gnu_cxx17__normal_iteratorIPKSt4pairIPjjESt6vectorIS3_SaIS3_EEEdeEv W
_ZNK9__gnu_cxx17__normal_iteratorIPKSt6vectorIhSaIhEES1_IS3_SaIS3_EEE4baseEv W
_ZNK9__gnu_cxx17__normal_iteratorIPKSt6vectorIhSaIhEES1_IS3_SaIS3_EEEdeEv W
_ZNK9__gnu_cxx17__normal_iteratorIPKSt6vectorIhSaIhEES1_IS3_SaIS3_EEEptEv W
_ZNK9__gnu_cxx17__normal_iteratorIPKtSt6vectorItSaItEEE4baseEv W
_ZNK9__gnu_cxx17__normal_iteratorIPKtSt6vectorItSaItEEEdeEv W
_ZNK9__gnu_cxx17__normal_iteratorIPN4Tins11IPv4AddressESt6vectorIS2_SaIS2_EEE4baseEv W
_ZNK9__gnu_cxx17__normal_iteratorIPN4Tins11IPv4AddressESt6vectorIS2_SaIS2_EEEdeEv W
_ZNK9__gnu_cxx17__normal_iteratorIPN4Tins11IPv6AddressESt6vectorIS2_SaIS2_EEE4baseEv W
_ZNK9__gnu_cxx17__normal_iteratorIPN4Tins11IPv6AddressESt6vectorIS2_SaIS2_EEEdeEv W
_ZNK9__gnu_cxx17__normal_iteratorIPN4Tins13ICMPExtensionESt6vectorIS2_SaIS2_EEE4baseEv W
_ZNK9__gnu_cxx17__normal_iteratorIPN4Tins13ICMPExtensionESt6vectorIS2_SaIS2_EEEdeEv W
_ZNK9__gnu_cxx17__normal_iteratorIPN4Tins16NetworkInterface10IPv6PrefixESt6vectorIS3_SaIS3_EEE4baseEv W
_ZNK9__gnu_cxx17__normal_iteratorIPN4Tins16NetworkInterface10IPv6PrefixESt6vectorIS3_SaIS3_EEEdeEv W
_ZNK9__gnu_cxx17__normal_iteratorIPN4Tins16NetworkInterfaceESt6vectorIS2_SaIS2_EEE4baseEv W
_ZNK9__gnu_cxx17__normal_iteratorIPN4Tins16NetworkInterfaceESt6vectorIS2_SaIS2_EEEdeEv W
_ZNK9__gnu_cxx17__normal_iteratorIPN4Tins3DNS5queryESt6vectorIS3_SaIS3_EEE4baseEv W
_ZNK9__gnu_cxx17__normal_iteratorIPN4Tins3DNS5queryESt6vectorIS3_SaIS3_EEEdeEv W
_ZNK9__gnu_cxx17__normal_iteratorIPN4Tins3DNS8resourceESt6vectorIS3_SaIS3_EEE4baseEv W
_ZNK9__gnu_cxx17__normal_iteratorIPN4Tins3DNS8resourceESt6vectorIS3_SaIS3_EEEdeEv W
_ZNK9__gnu_cxx17__normal_iteratorIPN4Tins5Utils10RouteEntryESt6vectorIS3_SaIS3_EEE4baseEv W
_ZNK9__gnu_cxx17__normal_iteratorIPN4Tins5Utils10RouteEntryESt6vectorIS3_SaIS3_EEEdeEv W
_ZNK9__gnu_cxx17__normal_iteratorIPN4Tins5Utils11Route6EntryESt6vectorIS3_SaIS3_EEE4baseEv W
_ZNK9__gnu_cxx17__normal_iteratorIPN4Tins5Utils11Route6EntryESt6vectorIS3_SaIS3_EEEdeEv W
_ZNK9__gnu_cxx17__normal_iteratorIPN4Tins6ICMPv624multicast_address_recordESt6vectorIS3_SaIS3_EEE4baseEv W
_ZNK9__gnu_cxx17__normal_iteratorIPN4Tins6ICMPv624multicast_address_recordESt6vectorIS3_SaIS3_EEEdeEv W
_ZNK9__gnu_cxx17__normal_iteratorIPN4Tins6ICMPv624multicast_address_recordESt6vectorIS3_SaIS3_EEEmiERKl W
_ZNK9__gnu_cxx17__normal_iteratorIPN4Tins9Internals12IPv4FragmentESt6vectorIS3_SaIS3_EEE4baseEv W
_ZNK9__gnu_cxx17__normal_iteratorIPN4Tins9Internals12IPv4FragmentESt6vectorIS3_SaIS3_EEEdeEv W
_ZNK9__gnu_cxx17__normal_iteratorIPN4Tins9Internals12IPv4FragmentESt6vectorIS3_SaIS3_EEEptEv W
_ZNK9__gnu_cxx17__normal_iteratorIPN4Tins9PDUOptionIhNS1_3TCPEEESt6vectorIS4_SaIS4_EEE4baseEv W
_ZNK9__gnu_cxx17__normal_iteratorIPN4Tins9PDUOptionIhNS1_3TCPEEESt6vectorIS4_SaIS4_EEEdeEv W
_ZNK9__gnu_cxx17__normal_iteratorIPN4Tins9PDUOptionIhNS1_3TCPEEESt6vectorIS4_SaIS4_EEEplERKl W
_ZNK9__gnu_cxx17__normal_iteratorIPN4Tins9PDUOptionIhNS1_3TCPEEESt6vectorIS4_SaIS4_EEEptEv W
_ZNK9__gnu_cxx17__normal_iteratorIPN4Tins9PDUOptionIhNS1_4DHCPEEESt6vectorIS4_SaIS4_EEE4baseEv W
_ZNK9__gnu_cxx17__normal_iteratorIPN4Tins9PDUOptionIhNS1_4DHCPEEESt6vectorIS4_SaIS4_EEEdeEv W
_ZNK9__gnu_cxx17__normal_iteratorIPN4Tins9PDUOptionIhNS1_4DHCPEEESt6vectorIS4_SaIS4_EEEplERKl W
_ZNK9__gnu_cxx17__normal_iteratorIPN4Tins9PDUOptionIhNS1_4DHCPEEESt6vectorIS4_SaIS4_EEEptEv W
_ZNK9__gnu_cxx17__normal_iteratorIPN4Tins9PDUOptionIhNS1_4IPv6EEESt6vectorIS4_SaIS4_EEE4baseEv W
_ZNK9__gnu_cxx17__normal_iteratorIPN4Tins9PDUOptionIhNS1_4IPv6EEESt6vectorIS4_SaIS4_EEEdeEv W
_ZNK9__gnu_cxx17__normal_iteratorIPN4Tins9PDUOptionIhNS1_4IPv6EEESt6vectorIS4_SaIS4_EEEmiERKl W
_ZNK9__gnu_cxx17__normal_iteratorIPN4Tins9PDUOptionIhNS1_6ICMPv6EEESt6vectorIS4_SaIS4_EEE4baseEv W
_ZNK9__gnu_cxx17__normal_iteratorIPN4Tins9PDUOptionIhNS1_6ICMPv6EEESt6vectorIS4_SaIS4_EEEdeEv W
_ZNK9__gnu_cxx17__normal_iteratorIPN4Tins9PDUOptionIhNS1_6ICMPv6EEESt6vectorIS4_SaIS4_EEEplERKl W
_ZNK9__gnu_cxx17__normal_iteratorIPN4Tins9PDUOptionIhNS1_6ICMPv6EEESt6vectorIS4_SaIS4_EEEptEv W
_ZNK9__gnu_cxx17__normal_iteratorIPN4Tins9PDUOptionINS1_2IP17option_identifierES3_EESt6vectorIS5_SaIS5_EEE4baseEv W
_ZNK9__gnu_cxx17__normal_iteratorIPN4Tins9PDUOptionINS1_2IP17option_identifierES3_EESt6vectorIS5_SaIS5_EEEdeEv W
_ZNK9__gnu_cxx17__normal_iteratorIPN4Tins9PDUOptionINS1_2IP17option_identifierES3_EESt6vectorIS5_SaIS5_EEEplERKl W
_ZNK9__gnu_cxx17__normal_iteratorIPN4Tins9PDUOptionINS1_2IP17option_identifierES3_EESt6vectorIS5_SaIS5_EEEptEv W
_ZNK9__gnu_cxx17__normal_iteratorIPN4Tins9PDUOptionINS1_5PPPoE8TagTypesES3_EESt6vectorIS5_SaIS5_EEE4baseEv W
_ZNK9__gnu_cxx17__normal_iteratorIPN4Tins9PDUOptionINS1_5PPPoE8TagTypesES3_EESt6vectorIS5_SaIS5_EEEdeEv W
_ZNK9__gnu_cxx17__normal_iteratorIPN4Tins9PDUOptionItNS1_6DHCPv6EEESt6vectorIS4_SaIS4_EEE4baseEv W
_ZNK9__gnu_cxx17__normal_iteratorIPN4Tins9PDUOptionItNS1_6DHCPv6EEESt6vectorIS4_SaIS4_EEEdeEv W
_ZNK9__gnu_cxx17__normal_iteratorIPN4Tins9PDUOptionItNS1_6DHCPv6EEESt6vectorIS4_SaIS4_EEEplERKl W
_ZNK9__gnu_cxx17__normal_iteratorIPN4Tins9PDUOptionItNS1_6DHCPv6EEESt6vectorIS4_SaIS4_EEEptEv W
_ZNK9__gnu_cxx17__normal_iteratorIPSsSt6vectorISsSaISsEEE4baseEv W
_ZNK9__gnu_cxx17__normal_iteratorIPSsSt6vectorISsSaISsEEEdeEv W
_ZNK9__gnu_cxx17__normal_iteratorIPSt4pairIhhESt6vectorIS2_SaIS2_EEE4baseEv W
_ZNK9__gnu_cxx17__normal_iteratorIPSt4pairIhhESt6vectorIS2_SaIS2_EEEdeEv W
_ZNK9__gnu_cxx17__normal_iteratorIPSt4pairIhSt6vectorIhSaIhEEES2_IS5_SaIS5_EEE4baseEv W
_ZNK9__gnu_cxx17__normal_iteratorIPSt4pairIhSt6vectorIhSaIhEEES2_IS5_SaIS5_EEEdeEv W
_ZNK9__gnu_cxx17__normal_iteratorIPSt4pairIPjjESt6vectorIS3_SaIS3_EEE4baseEv W
_ZNK9__gnu_cxx17__normal_iteratorIPSt4pairIPjjESt6vectorIS3_SaIS3_EEEdeEv W
_ZNK9__gnu_cxx17__normal_iteratorIPSt6vectorIhSaIhEES1_IS3_SaIS3_EEE4baseEv W
_ZNK9__gnu_cxx17__normal_iteratorIPSt6vectorIhSaIhEES1_IS3_SaIS3_EEEdeEv W
_ZNK9__gnu_cxx17__normal_iteratorIPtSt6vectorItSaItEEEdeEv W
_ZNKSt10_Select1stISt4pairIKhPFPN4Tins3PDUEPS1_jEEEclERKS8_ W
_ZNKSt10_Select1stISt4pairIKN4Tins12PacketSender10SocketTypeEiEEclERKS5_ W
_ZNKSt10_Select1stISt4pairIKN4Tins3PDU7PDUTypeEhEEclERKS5_ W
_ZNKSt10_Select1stISt4pairIKN4Tins3PDU7PDUTypeEtEEclERKS5_ W
_ZNKSt10_Select1stISt4pairIKS0_ItS0_IN4Tins11IPv4AddressES2_EENS1_9Internals10IPv4StreamEEEclERKS8_ W
_ZNKSt10_Select1stISt4pairIKtPFPN4Tins3PDUEPKhjEEEclERKS9_ W
_ZNKSt12_Vector_baseIfSaIfEE19_M_get_Tp_allocatorEv W
_ZNKSt12_Vector_baseIhSaIhEE19_M_get_Tp_allocatorEv W
_ZNKSt12_Vector_baseIiSaIiEE19_M_get_Tp_allocatorEv W
_ZNKSt12_Vector_baseIN4Tins11IPv4AddressESaIS1_EE19_M_get_Tp_allocatorEv W
_ZNKSt12_Vector_baseIN4Tins11IPv6AddressESaIS1_EE19_M_get_Tp_allocatorEv W
_ZNKSt12_Vector_baseIN4Tins13ICMPExtensionESaIS1_EE19_M_get_Tp_allocatorEv W
_ZNKSt12_Vector_baseIN4Tins16NetworkInterface10IPv6PrefixESaIS2_EE19_M_get_Tp_allocatorEv W
_ZNKSt12_Vector_baseIN4Tins16NetworkInterfaceESaIS1_EE19_M_get_Tp_allocatorEv W
_ZNKSt12_Vector_baseIN4Tins3DNS5queryESaIS2_EE19_M_get_Tp_allocatorEv W
_ZNKSt12_Vector_baseIN4Tins3DNS8resourceESaIS2_EE19_M_get_Tp_allocatorEv W
_ZNKSt12_Vector_baseIN4Tins5Utils10RouteEntryESaIS2_EE19_M_get_Tp_allocatorEv W
_ZNKSt12_Vector_baseIN4Tins5Utils11Route6EntryESaIS2_EE19_M_get_Tp_allocatorEv W
_ZNKSt12_Vector_baseIN4Tins6ICMPv624multicast_address_recordESaIS2_EE19_M_get_Tp_allocatorEv W
_ZNKSt12_Vector_baseIN4Tins9Internals12IPv4FragmentESaIS2_EE19_M_get_Tp_allocatorEv W
_ZNKSt12_Vector_baseIN4Tins9PDUOptionIhNS0_3TCPEEESaIS3_EE19_M_get_Tp_allocatorEv W
_ZNKSt12_Vector_baseIN4Tins9PDUOptionIhNS0_4DHCPEEESaIS3_EE19_M_get_Tp_allocatorEv W
_ZNKSt12_Vector_baseIN4Tins9PDUOptionIhNS0_4IPv6EEESaIS3_EE19_M_get_Tp_allocatorEv W
_ZNKSt12_Vector_baseIN4Tins9PDUOptionIhNS0_6ICMPv6EEESaIS3_EE19_M_get_Tp_allocatorEv W
_ZNKSt12_Vector_baseIN4Tins9PDUOptionINS0_2IP17option_identifierES2_EESaIS4_EE19_M_get_Tp_allocatorEv W
_ZNKSt12_Vector_baseIN4Tins9PDUOptionINS0_5PPPoE8TagTypesES2_EESaIS4_EE19_M_get_Tp_allocatorEv W
_ZNKSt12_Vector_baseIN4Tins9PDUOptionItNS0_6DHCPv6EEESaIS3_EE19_M_get_Tp_allocatorEv W
_ZNKSt12_Vector_baseISsSaISsEE19_M_get_Tp_allocatorEv W
_ZNKSt12_Vector_baseISt4pairIhhESaIS1_EE19_M_get_Tp_allocatorEv W
_ZNKSt12_Vector_baseISt4pairIhSt6vectorIhSaIhEEESaIS4_EE19_M_get_Tp_allocatorEv W
_ZNKSt12_Vector_baseISt4pairIPjjESaIS2_EE19_M_get_Tp_allocatorEv W
_ZNKSt12_Vector_baseISt6vectorIhSaIhEESaIS2_EE19_M_get_Tp_allocatorEv W
_ZNKSt17_Rb_tree_iteratorISsEeqERKS0_ W
_ZNKSt17_Rb_tree_iteratorISt4pairIKhPFPN4Tins3PDUEPS1_jEEEeqERKS9_ W
_ZNKSt17_Rb_tree_iteratorISt4pairIKN4Tins12PacketSender10SocketTypeEiEEdeEv W
_ZNKSt17_Rb_tree_iteratorISt4pairIKN4Tins12PacketSender10SocketTypeEiEEeqERKS6_ W
_ZNKSt17_Rb_tree_iteratorISt4pairIKN4Tins12PacketSender10SocketTypeEiEEptEv W
_ZNKSt17_Rb_tree_iteratorISt4pairIKN4Tins3PDU7PDUTypeEhEEeqERKS6_ W
_ZNKSt17_Rb_tree_iteratorISt4pairIKN4Tins3PDU7PDUTypeEtEEeqERKS6_ W
_ZNKSt17_Rb_tree_iteratorISt4pairIKS0_ItS0_IN4Tins11IPv4AddressES2_EENS1_9Internals10IPv4StreamEEEdeEv W
_ZNKSt17_Rb_tree_iteratorISt4pairIKS0_ItS0_IN4Tins11IPv4AddressES2_EENS1_9Internals10IPv4StreamEEEeqERKS9_ W
_ZNKSt17_Rb_tree_iteratorISt4pairIKtPFPN4Tins3PDUEPKhjEEEeqERKSA_ W
_ZNKSt23_Rb_tree_const_iteratorISsEdeEv W
_ZNKSt23_Rb_tree_const_iteratorISsEneERKS0_ W
_ZNKSt23_Rb_tree_const_iteratorISt4pairIKhPFPN4Tins3PDUEPS1_jEEEeqERKS9_ W
_ZNKSt23_Rb_tree_const_iteratorISt4pairIKhPFPN4Tins3PDUEPS1_jEEEptEv W
_ZNKSt23_Rb_tree_const_iteratorISt4pairIKN4Tins12PacketSender10SocketTypeEiEE13_M_const_castEv W
_ZNKSt23_Rb_tree_const_iteratorISt4pairIKN4Tins3PDU7PDUTypeEhEEeqERKS6_ W
_ZNKSt23_Rb_tree_const_iteratorISt4pairIKN4Tins3PDU7PDUTypeEhEEptEv W
_ZNKSt23_Rb_tree_const_iteratorISt4pairIKN4Tins3PDU7PDUTypeEtEEeqERKS6_ W
_ZNKSt23_Rb_tree_const_iteratorISt4pairIKN4Tins3PDU7PDUTypeEtEEptEv W
_ZNKSt23_Rb_tree_const_iteratorISt4pairIKS0_ItS0_IN4Tins11IPv4AddressES2_EENS1_9Internals10IPv4StreamEEE13_M_const_castEv W
_ZNKSt23_Rb_tree_const_iteratorISt4pairIKS0_ItS0_IN4Tins11IPv4AddressES2_EENS1_9Internals10IPv4StreamEEEeqERKS9_ W
_ZNKSt23_Rb_tree_const_iteratorISt4pairIKS0_ItS0_IN4Tins11IPv4AddressES2_EENS1_9Internals10IPv4StreamEEEneERKS9_ W
_ZNKSt23_Rb_tree_const_iteratorISt4pairIKtPFPN4Tins3PDUEPKhjEEEeqERKSA_ W
_ZNKSt23_Rb_tree_const_iteratorISt4pairIKtPFPN4Tins3PDUEPKhjEEEptEv W
_ZNKSt3mapIN4Tins12PacketSender10SocketTypeEiSt4lessIS2_ESaISt4pairIKS2_iEEE8key_compEv W
_ZNKSt3mapIN4Tins3PDU7PDUTypeEhSt4lessIS2_ESaISt4pairIKS2_hEEE5countERS6_ W
_ZNKSt3mapIN4Tins3PDU7PDUTypeEtSt4lessIS2_ESaISt4pairIKS2_tEEE5countERS6_ W
_ZNKSt3mapISt4pairItS0_IN4Tins11IPv4AddressES2_EENS1_9Internals10IPv4StreamESt4lessIS4_ESaIS0_IKS4_S6_EEE8key_compEv W
_ZNKSt3setISsSt4lessISsESaISsEE3endEv W
_ZNKSt3setISsSt4lessISsESaISsEE5beginEv W
_ZNKSt4lessIhEclERKhS2_ W
_ZNKSt4lessIN4Tins12PacketSender10SocketTypeEEclERKS2_S5_ W
_ZNKSt4lessIN4Tins3PDU7PDUTypeEEclERKS2_S5_ W
_ZNKSt4lessISsEclERKSsS2_ W
_ZNKSt4lessISt4pairItS0_IN4Tins11IPv4AddressES2_EEEclERKS4_S7_ W
_ZNKSt4lessItEclERKtS2_ W
_ZNKSt6vectorIfSaIfEE12_M_check_lenEmPKc W
_ZNKSt6vectorIfSaIfEE4sizeEv W
_ZNKSt6vectorIfSaIfEE8max_sizeEv W
_ZNKSt6vectorIhSaIhEE12_M_check_lenEmPKc W
_ZNKSt6vectorIhSaIhEE3endEv W
_ZNKSt6vectorIhSaIhEE4sizeEv W
_ZNKSt6vectorIhSaIhEE5beginEv W
_ZNKSt6vectorIhSaIhEE5emptyEv W
_ZNKSt6vectorIhSaIhEE8capacityEv W
_ZNKSt6vectorIhSaIhEE8max_sizeEv W
_ZNKSt6vectorIhSaIhEEixEm W
_ZNKSt6vectorIiSaIiEE12_M_check_lenEmPKc W
_ZNKSt6vectorIiSaIiEE3endEv W
_ZNKSt6vectorIiSaIiEE4sizeEv W
_ZNKSt6vectorIiSaIiEE5beginEv W
_ZNKSt6vectorIiSaIiEE8max_sizeEv W
_ZNKSt6vectorIjSaIjEE3endEv W
_ZNKSt6vectorIjSaIjEE4sizeEv W
_ZNKSt6vectorIjSaIjEE5beginEv W
_ZNKSt6vectorIN4Tins11IPv4AddressESaIS1_EE12_M_check_lenEmPKc W
_ZNKSt6vectorIN4Tins11IPv4AddressESaIS1_EE3endEv W
_ZNKSt6vectorIN4Tins11IPv4AddressESaIS1_EE4sizeEv W
_ZNKSt6vectorIN4Tins11IPv4AddressESaIS1_EE5beginEv W
_ZNKSt6vectorIN4Tins11IPv4AddressESaIS1_EE8max_sizeEv W
_ZNKSt6vectorIN4Tins11IPv4AddressESaIS1_EEixEm W
_ZNKSt6vectorIN4Tins11IPv6AddressESaIS1_EE12_M_check_lenEmPKc W
_ZNKSt6vectorIN4Tins11IPv6AddressESaIS1_EE3endEv W
_ZNKSt6vectorIN4Tins11IPv6AddressESaIS1_EE4sizeEv W
_ZNKSt6vectorIN4Tins11IPv6AddressESaIS1_EE5beginEv W
_ZNKSt6vectorIN4Tins11IPv6AddressESaIS1_EE8capacityEv W
_ZNKSt6vectorIN4Tins11IPv6AddressESaIS1_EE8max_sizeEv W
_ZNKSt6vectorIN4Tins11IPv6AddressESaIS1_EEixEm W
_ZNKSt6vectorIN4Tins13ICMPExtensionESaIS1_EE12_M_check_lenEmPKc W
_ZNKSt6vectorIN4Tins13ICMPExtensionESaIS1_EE3endEv W
_ZNKSt6vectorIN4Tins13ICMPExtensionESaIS1_EE4sizeEv W
_ZNKSt6vectorIN4Tins13ICMPExtensionESaIS1_EE5beginEv W
_ZNKSt6vectorIN4Tins13ICMPExtensionESaIS1_EE5emptyEv W
_ZNKSt6vectorIN4Tins13ICMPExtensionESaIS1_EE8capacityEv W
_ZNKSt6vectorIN4Tins13ICMPExtensionESaIS1_EE8max_sizeEv W
_ZNKSt6vectorIN4Tins16NetworkInterface10IPv6PrefixESaIS2_EE12_M_check_lenEmPKc W
_ZNKSt6vectorIN4Tins16NetworkInterface10IPv6PrefixESaIS2_EE3endEv W
_ZNKSt6vectorIN4Tins16NetworkInterface10IPv6PrefixESaIS2_EE4sizeEv W
_ZNKSt6vectorIN4Tins16NetworkInterface10IPv6PrefixESaIS2_EE5beginEv W
_ZNKSt6vectorIN4Tins16NetworkInterface10IPv6PrefixESaIS2_EE8max_sizeEv W
_ZNKSt6vectorIN4Tins16NetworkInterfaceESaIS1_EE12_M_check_lenEmPKc W
_ZNKSt6vectorIN4Tins16NetworkInterfaceESaIS1_EE4sizeEv W
_ZNKSt6vectorIN4Tins16NetworkInterfaceESaIS1_EE8max_sizeEv W
_ZNKSt6vectorIN4Tins3DNS5queryESaIS2_EE12_M_check_lenEmPKc W
_ZNKSt6vectorIN4Tins3DNS5queryESaIS2_EE4sizeEv W
_ZNKSt6vectorIN4Tins3DNS5queryESaIS2_EE8max_sizeEv W
_ZNKSt6vectorIN4Tins3DNS8resourceESaIS2_EE12_M_check_lenEmPKc W
_ZNKSt6vectorIN4Tins3DNS8resourceESaIS2_EE4sizeEv W
_ZNKSt6vectorIN4Tins3DNS8resourceESaIS2_EE8max_sizeEv W
_ZNKSt6vectorIN4Tins5Utils10RouteEntryESaIS2_EE12_M_check_lenEmPKc W
_ZNKSt6vectorIN4Tins5Utils10RouteEntryESaIS2_EE4sizeEv W
_ZNKSt6vectorIN4Tins5Utils10RouteEntryESaIS2_EE8max_sizeEv W
_ZNKSt6vectorIN4Tins5Utils11Route6EntryESaIS2_EE12_M_check_lenEmPKc W
_ZNKSt6vectorIN4Tins5Utils11Route6EntryESaIS2_EE4sizeEv W
_ZNKSt6vectorIN4Tins5Utils11Route6EntryESaIS2_EE8max_sizeEv W
_ZNKSt6vectorIN4Tins6ICMPv624multicast_address_recordESaIS2_EE12_M_check_lenEmPKc W
_ZNKSt6vectorIN4Tins6ICMPv624multicast_address_recordESaIS2_EE3endEv W
_ZNKSt6vectorIN4Tins6ICMPv624multicast_address_recordESaIS2_EE4sizeEv W
_ZNKSt6vectorIN4Tins6ICMPv624multicast_address_recordESaIS2_EE5beginEv W
_ZNKSt6vectorIN4Tins6ICMPv624multicast_address_recordESaIS2_EE8capacityEv W
_ZNKSt6vectorIN4Tins6ICMPv624multicast_address_recordESaIS2_EE8max_sizeEv W
_ZNKSt6vectorIN4Tins9Internals12IPv4FragmentESaIS2_EE12_M_check_lenEmPKc W
_ZNKSt6vectorIN4Tins9Internals12IPv4FragmentESaIS2_EE3endEv W
_ZNKSt6vectorIN4Tins9Internals12IPv4FragmentESaIS2_EE4sizeEv W
_ZNKSt6vectorIN4Tins9Internals12IPv4FragmentESaIS2_EE5beginEv W
_ZNKSt6vectorIN4Tins9Internals12IPv4FragmentESaIS2_EE8max_sizeEv W
_ZNKSt6vectorIN4Tins9PDUOptionIhNS0_3TCPEEESaIS3_EE12_M_check_lenEmPKc W
_ZNKSt6vectorIN4Tins9PDUOptionIhNS0_3TCPEEESaIS3_EE3endEv W
_ZNKSt6vectorIN4Tins9PDUOptionIhNS0_3TCPEEESaIS3_EE4sizeEv W
_ZNKSt6vectorIN4Tins9PDUOptionIhNS0_3TCPEEESaIS3_EE5beginEv W
_ZNKSt6vectorIN4Tins9PDUOptionIhNS0_3TCPEEESaIS3_EE8capacityEv W
_ZNKSt6vectorIN4Tins9PDUOptionIhNS0_3TCPEEESaIS3_EE8max_sizeEv W
_ZNKSt6vectorIN4Tins9PDUOptionIhNS0_4DHCPEEESaIS3_EE12_M_check_lenEmPKc W
_ZNKSt6vectorIN4Tins9PDUOptionIhNS0_4DHCPEEESaIS3_EE3endEv W
_ZNKSt6vectorIN4Tins9PDUOptionIhNS0_4DHCPEEESaIS3_EE4sizeEv W
_ZNKSt6vectorIN4Tins9PDUOptionIhNS0_4DHCPEEESaIS3_EE5beginEv W
_ZNKSt6vectorIN4Tins9PDUOptionIhNS0_4DHCPEEESaIS3_EE8max_sizeEv W
_ZNKSt6vectorIN4Tins9PDUOptionIhNS0_4IPv6EEESaIS3_EE12_M_check_lenEmPKc W
_ZNKSt6vectorIN4Tins9PDUOptionIhNS0_4IPv6EEESaIS3_EE3endEv W
_ZNKSt6vectorIN4Tins9PDUOptionIhNS0_4IPv6EEESaIS3_EE4sizeEv W
_ZNKSt6vectorIN4Tins9PDUOptionIhNS0_4IPv6EEESaIS3_EE5beginEv W
_ZNKSt6vectorIN4Tins9PDUOptionIhNS0_4IPv6EEESaIS3_EE5emptyEv W
_ZNKSt6vectorIN4Tins9PDUOptionIhNS0_4IPv6EEESaIS3_EE8max_sizeEv W
_ZNKSt6vectorIN4Tins9PDUOptionIhNS0_6ICMPv6EEESaIS3_EE12_M_check_lenEmPKc W
_ZNKSt6vectorIN4Tins9PDUOptionIhNS0_6ICMPv6EEESaIS3_EE3endEv W
_ZNKSt6vectorIN4Tins9PDUOptionIhNS0_6ICMPv6EEESaIS3_EE4sizeEv W
_ZNKSt6vectorIN4Tins9PDUOptionIhNS0_6ICMPv6EEESaIS3_EE5beginEv W
_ZNKSt6vectorIN4Tins9PDUOptionIhNS0_6ICMPv6EEESaIS3_EE8max_sizeEv W
_ZNKSt6vectorIN4Tins9PDUOptionINS0_2IP17option_identifierES2_EESaIS4_EE12_M_check_lenEmPKc W
_ZNKSt6vectorIN4Tins9PDUOptionINS0_2IP17option_identifierES2_EESaIS4_EE3endEv W
_ZNKSt6vectorIN4Tins9PDUOptionINS0_2IP17option_identifierES2_EESaIS4_EE4sizeEv W
_ZNKSt6vectorIN4Tins9PDUOptionINS0_2IP17option_identifierES2_EESaIS4_EE5beginEv W
_ZNKSt6vectorIN4Tins9PDUOptionINS0_2IP17option_identifierES2_EESaIS4_EE8capacityEv W
_ZNKSt6vectorIN4Tins9PDUOptionINS0_2IP17option_identifierES2_EESaIS4_EE8max_sizeEv W
_ZNKSt6vectorIN4Tins9PDUOptionINS0_5PPPoE8TagTypesES2_EESaIS4_EE12_M_check_lenEmPKc W
_ZNKSt6vectorIN4Tins9PDUOptionINS0_5PPPoE8TagTypesES2_EESaIS4_EE3endEv W
_ZNKSt6vectorIN4Tins9PDUOptionINS0_5PPPoE8TagTypesES2_EESaIS4_EE4sizeEv W
_ZNKSt6vectorIN4Tins9PDUOptionINS0_5PPPoE8TagTypesES2_EESaIS4_EE5beginEv W
_ZNKSt6vectorIN4Tins9PDUOptionINS0_5PPPoE8TagTypesES2_EESaIS4_EE8max_sizeEv W
_ZNKSt6vectorIN4Tins9PDUOptionItNS0_6DHCPv6EEESaIS3_EE12_M_check_lenEmPKc W
_ZNKSt6vectorIN4Tins9PDUOptionItNS0_6DHCPv6EEESaIS3_EE3endEv W
_ZNKSt6vectorIN4Tins9PDUOptionItNS0_6DHCPv6EEESaIS3_EE4sizeEv W
_ZNKSt6vectorIN4Tins9PDUOptionItNS0_6DHCPv6EEESaIS3_EE5beginEv W
_ZNKSt6vectorIN4Tins9PDUOptionItNS0_6DHCPv6EEESaIS3_EE8max_sizeEv W
_ZNKSt6vectorIS_IhSaIhEESaIS1_EE12_M_check_lenEmPKc W
_ZNKSt6vectorIS_IhSaIhEESaIS1_EE3endEv W
_ZNKSt6vectorIS_IhSaIhEESaIS1_EE4sizeEv W
_ZNKSt6vectorIS_IhSaIhEESaIS1_EE5beginEv W
_ZNKSt6vectorIS_IhSaIhEESaIS1_EE8capacityEv W
_ZNKSt6vectorIS_IhSaIhEESaIS1_EE8max_sizeEv W
_ZNKSt6vectorISsSaISsEE12_M_check_lenEmPKc W
_ZNKSt6vectorISsSaISsEE3endEv W
_ZNKSt6vectorISsSaISsEE4sizeEv W
_ZNKSt6vectorISsSaISsEE5beginEv W
_ZNKSt6vectorISsSaISsEE8max_sizeEv W
_ZNKSt6vectorISt4pairIhhESaIS1_EE12_M_check_lenEmPKc W
_ZNKSt6vectorISt4pairIhhESaIS1_EE4sizeEv W
_ZNKSt6vectorISt4pairIhhESaIS1_EE8max_sizeEv W
_ZNKSt6vectorISt4pairIhS_IhSaIhEEESaIS3_EE12_M_check_lenEmPKc W
_ZNKSt6vectorISt4pairIhS_IhSaIhEEESaIS3_EE3endEv W
_ZNKSt6vectorISt4pairIhS_IhSaIhEEESaIS3_EE4sizeEv W
_ZNKSt6vectorISt4pairIhS_IhSaIhEEESaIS3_EE5beginEv W
_ZNKSt6vectorISt4pairIhS_IhSaIhEEESaIS3_EE8capacityEv W
_ZNKSt6vectorISt4pairIhS_IhSaIhEEESaIS3_EE8max_sizeEv W
_ZNKSt6vectorISt4pairIPjjESaIS2_EE12_M_check_lenEmPKc W
_ZNKSt6vectorISt4pairIPjjESaIS2_EE3endEv W
_ZNKSt6vectorISt4pairIPjjESaIS2_EE4sizeEv W
_ZNKSt6vectorISt4pairIPjjESaIS2_EE5beginEv W
_ZNKSt6vectorISt4pairIPjjESaIS2_EE5emptyEv W
_ZNKSt6vectorISt4pairIPjjESaIS2_EE5frontEv W
_ZNKSt6vectorISt4pairIPjjESaIS2_EE8max_sizeEv W
_ZNKSt6vectorISt4pairIPjjESaIS2_EEixEm W
_ZNKSt6vectorItSaItEE3endEv W
_ZNKSt6vectorItSaItEE4sizeEv W
_ZNKSt6vectorItSaItEE5beginEv W
_ZNKSt6vectorItSaItEEixEm W
_ZNKSt8auto_ptrIN4Tins3PDUEE3getEv W
_ZNKSt8auto_ptrIN4Tins3PDUEEptEv W
_ZNKSt8_Rb_treeIhSt4pairIKhPFPN4Tins3PDUEPS1_jEESt10_Select1stIS8_ESt4lessIhESaIS8_EE13get_allocatorEv W
_ZNKSt8_Rb_treeIhSt4pairIKhPFPN4Tins3PDUEPS1_jEESt10_Select1stIS8_ESt4lessIhESaIS8_EE21_M_get_Node_allocatorEv W
_ZNKSt8_Rb_treeIN4Tins12PacketSender10SocketTypeESt4pairIKS2_iESt10_Select1stIS5_ESt4lessIS2_ESaIS5_EE13get_allocatorEv W
_ZNKSt8_Rb_treeIN4Tins12PacketSender10SocketTypeESt4pairIKS2_iESt10_Select1stIS5_ESt4lessIS2_ESaIS5_EE21_M_get_Node_allocatorEv W
_ZNKSt8_Rb_treeIN4Tins12PacketSender10SocketTypeESt4pairIKS2_iESt10_Select1stIS5_ESt4lessIS2_ESaIS5_EE4sizeEv W
_ZNKSt8_Rb_treeIN4Tins12PacketSender10SocketTypeESt4pairIKS2_iESt10_Select1stIS5_ESt4lessIS2_ESaIS5_EE8key_compEv W
_ZNKSt8_Rb_treeIN4Tins3PDU7PDUTypeESt4pairIKS2_hESt10_Select1stIS5_ESt4lessIS2_ESaIS5_EE13get_allocatorEv W
_ZNKSt8_Rb_treeIN4Tins3PDU7PDUTypeESt4pairIKS2_hESt10_Select1stIS5_ESt4lessIS2_ESaIS5_EE14_M_lower_boundEPKSt13_Rb_tree_nodeIS5_ESF_RS4_ W
_ZNKSt8_Rb_treeIN4Tins3PDU7PDUTypeESt4pairIKS2_hESt10_Select1stIS5_ESt4lessIS2_ESaIS5_EE21_M_get_Node_allocatorEv W
_ZNKSt8_Rb_treeIN4Tins3PDU7PDUTypeESt4pairIKS2_hESt10_Select1stIS5_ESt4lessIS2_ESaIS5_EE3endEv W
_ZNKSt8_Rb_treeIN4Tins3PDU7PDUTypeESt4pairIKS2_hESt10_Select1stIS5_ESt4lessIS2_ESaIS5_EE4findERS4_ W
_ZNKSt8_Rb_treeIN4Tins3PDU7PDUTypeESt4pairIKS2_hESt10_Select1stIS5_ESt4lessIS2_ESaIS5_EE6_M_endEv W
_ZNKSt8_Rb_treeIN4Tins3PDU7PDUTypeESt4pairIKS2_hESt10_Select1stIS5_ESt4lessIS2_ESaIS5_EE8_M_beginEv W
_ZNKSt8_Rb_treeIN4Tins3PDU7PDUTypeESt4pairIKS2_tESt10_Select1stIS5_ESt4lessIS2_ESaIS5_EE13get_allocatorEv W
_ZNKSt8_Rb_treeIN4Tins3PDU7PDUTypeESt4pairIKS2_tESt10_Select1stIS5_ESt4lessIS2_ESaIS5_EE14_M_lower_boundEPKSt13_Rb_tree_nodeIS5_ESF_RS4_ W
_ZNKSt8_Rb_treeIN4Tins3PDU7PDUTypeESt4pairIKS2_tESt10_Select1stIS5_ESt4lessIS2_ESaIS5_EE21_M_get_Node_allocatorEv W
_ZNKSt8_Rb_treeIN4Tins3PDU7PDUTypeESt4pairIKS2_tESt10_Select1stIS5_ESt4lessIS2_ESaIS5_EE3endEv W
_ZNKSt8_Rb_treeIN4Tins3PDU7PDUTypeESt4pairIKS2_tESt10_Select1stIS5_ESt4lessIS2_ESaIS5_EE4findERS4_ W
_ZNKSt8_Rb_treeIN4Tins3PDU7PDUTypeESt4pairIKS2_tESt10_Select1stIS5_ESt4lessIS2_ESaIS5_EE6_M_endEv W
_ZNKSt8_Rb_treeIN4Tins3PDU7PDUTypeESt4pairIKS2_tESt10_Select1stIS5_ESt4lessIS2_ESaIS5_EE8_M_beginEv W
_ZNKSt8_Rb_treeISsSsSt9_IdentityISsESt4lessISsESaISsEE13get_allocatorEv W
_ZNKSt8_Rb_treeISsSsSt9_IdentityISsESt4lessISsESaISsEE21_M_get_Node_allocatorEv W
_ZNKSt8_Rb_treeISsSsSt9_IdentityISsESt4lessISsESaISsEE3endEv W
_ZNKSt8_Rb_treeISsSsSt9_IdentityISsESt4lessISsESaISsEE5beginEv W
_ZNKSt8_Rb_treeISt4pairItS0_IN4Tins11IPv4AddressES2_EES0_IKS4_NS1_9Internals10IPv4StreamEESt10_Select1stIS8_ESt4lessIS4_ESaIS8_EE13get_allocatorEv W
_ZNKSt8_Rb_treeISt4pairItS0_IN4Tins11IPv4AddressES2_EES0_IKS4_NS1_9Internals10IPv4StreamEESt10_Select1stIS8_ESt4lessIS4_ESaIS8_EE21_M_get_Node_allocatorEv W
_ZNKSt8_Rb_treeISt4pairItS0_IN4Tins11IPv4AddressES2_EES0_IKS4_NS1_9Internals10IPv4StreamEESt10_Select1stIS8_ESt4lessIS4_ESaIS8_EE4sizeEv W
_ZNKSt8_Rb_treeISt4pairItS0_IN4Tins11IPv4AddressES2_EES0_IKS4_NS1_9Internals10IPv4StreamEESt10_Select1stIS8_ESt4lessIS4_ESaIS8_EE8key_compEv W
_ZNKSt8_Rb_treeItSt4pairIKtPFPN4Tins3PDUEPKhjEESt10_Select1stIS9_ESt4lessItESaIS9_EE13get_allocatorEv W
_ZNKSt8_Rb_treeItSt4pairIKtPFPN4Tins3PDUEPKhjEESt10_Select1stIS9_ESt4lessItESaIS9_EE21_M_get_Node_allocatorEv W
_ZNKSt9_IdentityISsEclERKSs W
_ZNSaIfEC1Ev W
_ZNSaIfEC2Ev W
_ZNSaIfED1Ev W
_ZNSaIfED2Ev W
_ZNSaIhEC1ERKS_ W
_ZNSaIhEC1Ev W
_ZNSaIhEC2ERKS_ W
_ZNSaIhEC2Ev W
_ZNSaIhED1Ev W
_ZNSaIhED2Ev W
_ZNSaIiEC1ERKS_ W
_ZNSaIiEC1Ev W
_ZNSaIiEC2ERKS_ W
_ZNSaIiEC2Ev W
_ZNSaIiED1Ev W
_ZNSaIiED2Ev W
_ZNSaIjEC1ERKS_ W
_ZNSaIjEC1Ev W
_ZNSaIjEC2ERKS_ W
_ZNSaIjEC2Ev W
_ZNSaIjED1Ev W
_ZNSaIjED2Ev W
_ZNSaIN4Tins11IPv4AddressEEC1ERKS1_ W
_ZNSaIN4Tins11IPv4AddressEEC1Ev W
_ZNSaIN4Tins11IPv4AddressEEC2ERKS1_ W
_ZNSaIN4Tins11IPv4AddressEEC2Ev W
_ZNSaIN4Tins11IPv4AddressEED1Ev W
_ZNSaIN4Tins11IPv4AddressEED2Ev W
_ZNSaIN4Tins11IPv6AddressEEC1ERKS1_ W
_ZNSaIN4Tins11IPv6AddressEEC1Ev W
_ZNSaIN4Tins11IPv6AddressEEC2ERKS1_ W
_ZNSaIN4Tins11IPv6AddressEEC2Ev W
_ZNSaIN4Tins11IPv6AddressEED1Ev W
_ZNSaIN4Tins11IPv6AddressEED2Ev W
_ZNSaIN4Tins13ICMPExtensionEEC1ERKS1_ W
_ZNSaIN4Tins13ICMPExtensionEEC1Ev W
_ZNSaIN4Tins13ICMPExtensionEEC2ERKS1_ W
_ZNSaIN4Tins13ICMPExtensionEEC2Ev W
_ZNSaIN4Tins13ICMPExtensionEED1Ev W
_ZNSaIN4Tins13ICMPExtensionEED2Ev W
_ZNSaIN4Tins16NetworkInterface10IPv6PrefixEEC1ERKS2_ W
_ZNSaIN4Tins16NetworkInterface10IPv6PrefixEEC1Ev W
_ZNSaIN4Tins16NetworkInterface10IPv6PrefixEEC2ERKS2_ W
_ZNSaIN4Tins16NetworkInterface10IPv6PrefixEEC2Ev W
_ZNSaIN4Tins16NetworkInterface10IPv6PrefixEED1Ev W
_ZNSaIN4Tins16NetworkInterface10IPv6PrefixEED2Ev W
_ZNSaIN4Tins16NetworkInterfaceEEC1Ev W
_ZNSaIN4Tins16NetworkInterfaceEEC2Ev W
_ZNSaIN4Tins16NetworkInterfaceEED1Ev W
_ZNSaIN4Tins16NetworkInterfaceEED2Ev W
_ZNSaIN4Tins3DNS5queryEEC1Ev W
_ZNSaIN4Tins3DNS5queryEEC2Ev W
_ZNSaIN4Tins3DNS5queryEED1Ev W
_ZNSaIN4Tins3DNS5queryEED2Ev W
_ZNSaIN4Tins3DNS8resourceEEC1Ev W
_ZNSaIN4Tins3DNS8resourceEEC2Ev W
_ZNSaIN4Tins3DNS8resourceEED1Ev W
_ZNSaIN4Tins3DNS8resourceEED2Ev W
_ZNSaIN4Tins5Utils10RouteEntryEEC1Ev W
_ZNSaIN4Tins5Utils10RouteEntryEEC2Ev W
_ZNSaIN4Tins5Utils10RouteEntryEED1Ev W
_ZNSaIN4Tins5Utils10RouteEntryEED2Ev W
_ZNSaIN4Tins5Utils11Route6EntryEEC1Ev W
_ZNSaIN4Tins5Utils11Route6EntryEEC2Ev W
_ZNSaIN4Tins5Utils11Route6EntryEED1Ev W
_ZNSaIN4Tins5Utils11Route6EntryEED2Ev W
_ZNSaIN4Tins6ICMPv624multicast_address_recordEEC1ERKS2_ W
_ZNSaIN4Tins6ICMPv624multicast_address_recordEEC1Ev W
_ZNSaIN4Tins6ICMPv624multicast_address_recordEEC2ERKS2_ W
_ZNSaIN4Tins6ICMPv624multicast_address_recordEEC2Ev W
_ZNSaIN4Tins6ICMPv624multicast_address_recordEED1Ev W
_ZNSaIN4Tins6ICMPv624multicast_address_recordEED2Ev W
_ZNSaIN4Tins9Internals12IPv4FragmentEEC1ERKS2_ W
_ZNSaIN4Tins9Internals12IPv4FragmentEEC1Ev W
_ZNSaIN4Tins9Internals12IPv4FragmentEEC2ERKS2_ W
_ZNSaIN4Tins9Internals12IPv4FragmentEEC2Ev W
_ZNSaIN4Tins9Internals12IPv4FragmentEED1Ev W
_ZNSaIN4Tins9Internals12IPv4FragmentEED2Ev W
_ZNSaIN4Tins9PDUOptionIhNS_3TCPEEEEC1ERKS3_ W
_ZNSaIN4Tins9PDUOptionIhNS_3TCPEEEEC1Ev W
_ZNSaIN4Tins9PDUOptionIhNS_3TCPEEEEC2ERKS3_ W
_ZNSaIN4Tins9PDUOptionIhNS_3TCPEEEEC2Ev W
_ZNSaIN4Tins9PDUOptionIhNS_3TCPEEEED1Ev W
_ZNSaIN4Tins9PDUOptionIhNS_3TCPEEEED2Ev W
_ZNSaIN4Tins9PDUOptionIhNS_4DHCPEEEEC1ERKS3_ W
_ZNSaIN4Tins9PDUOptionIhNS_4DHCPEEEEC1Ev W
_ZNSaIN4Tins9PDUOptionIhNS_4DHCPEEEEC2ERKS3_ W
_ZNSaIN4Tins9PDUOptionIhNS_4DHCPEEEEC2Ev W
_ZNSaIN4Tins9PDUOptionIhNS_4DHCPEEEED1Ev W
_ZNSaIN4Tins9PDUOptionIhNS_4DHCPEEEED2Ev W
_ZNSaIN4Tins9PDUOptionIhNS_4IPv6EEEEC1ERKS3_ W
_ZNSaIN4Tins9PDUOptionIhNS_4IPv6EEEEC1Ev W
_ZNSaIN4Tins9PDUOptionIhNS_4IPv6EEEEC2ERKS3_ W
_ZNSaIN4Tins9PDUOptionIhNS_4IPv6EEEEC2Ev W
_ZNSaIN4Tins9PDUOptionIhNS_4IPv6EEEED1Ev W
_ZNSaIN4Tins9PDUOptionIhNS_4IPv6EEEED2Ev W
_ZNSaIN4Tins9PDUOptionIhNS_6ICMPv6EEEEC1ERKS3_ W
_ZNSaIN4Tins9PDUOptionIhNS_6ICMPv6EEEEC1Ev W
_ZNSaIN4Tins9PDUOptionIhNS_6ICMPv6EEEEC2ERKS3_ W
_ZNSaIN4Tins9PDUOptionIhNS_6ICMPv6EEEEC2Ev W
_ZNSaIN4Tins9PDUOptionIhNS_6ICMPv6EEEED1Ev W
_ZNSaIN4Tins9PDUOptionIhNS_6ICMPv6EEEED2Ev W
_ZNSaIN4Tins9PDUOptionINS_2IP17option_identifierES1_EEEC1ERKS4_ W
_ZNSaIN4Tins9PDUOptionINS_2IP17option_identifierES1_EEEC1Ev W
_ZNSaIN4Tins9PDUOptionINS_2IP17option_identifierES1_EEEC2ERKS4_ W
_ZNSaIN4Tins9PDUOptionINS_2IP17option_identifierES1_EEEC2Ev W
_ZNSaIN4Tins9PDUOptionINS_2IP17option_identifierES1_EEED1Ev W
_ZNSaIN4Tins9PDUOptionINS_2IP17option_identifierES1_EEED2Ev W
_ZNSaIN4Tins9PDUOptionINS_5PPPoE8TagTypesES1_EEEC1ERKS4_ W
_ZNSaIN4Tins9PDUOptionINS_5PPPoE8TagTypesES1_EEEC1Ev W
_ZNSaIN4Tins9PDUOptionINS_5PPPoE8TagTypesES1_EEEC2ERKS4_ W
_ZNSaIN4Tins9PDUOptionINS_5PPPoE8TagTypesES1_EEEC2Ev W
_ZNSaIN4Tins9PDUOptionINS_5PPPoE8TagTypesES1_EEED1Ev W
_ZNSaIN4Tins9PDUOptionINS_5PPPoE8TagTypesES1_EEED2Ev W
_ZNSaIN4Tins9PDUOptionItNS_6DHCPv6EEEEC1ERKS3_ W
_ZNSaIN4Tins9PDUOptionItNS_6DHCPv6EEEEC1Ev W
_ZNSaIN4Tins9PDUOptionItNS_6DHCPv6EEEEC2ERKS3_ W
_ZNSaIN4Tins9PDUOptionItNS_6DHCPv6EEEEC2Ev W
_ZNSaIN4Tins9PDUOptionItNS_6DHCPv6EEEED1Ev W
_ZNSaIN4Tins9PDUOptionItNS_6DHCPv6EEEED2Ev W
_ZNSaISsEC1ERKS_ W
_ZNSaISsEC1Ev W
_ZNSaISsEC1ISt13_Rb_tree_nodeISsEEERKSaIT_E W
_ZNSaISsEC2ERKS_ W
_ZNSaISsEC2Ev W
_ZNSaISsEC2ISt13_Rb_tree_nodeISsEEERKSaIT_E W
_ZNSaISsED1Ev W
_ZNSaISsED2Ev W
_ZNSaISt13_Rb_tree_nodeISsEEC1Ev W
_ZNSaISt13_Rb_tree_nodeISsEEC2Ev W
_ZNSaISt13_Rb_tree_nodeISsEED1Ev W
_ZNSaISt13_Rb_tree_nodeISsEED2Ev W
_ZNSaISt13_Rb_tree_nodeISt4pairIKhPFPN4Tins3PDUEPS1_jEEEEC1Ev W
_ZNSaISt13_Rb_tree_nodeISt4pairIKhPFPN4Tins3PDUEPS1_jEEEEC2Ev W
_ZNSaISt13_Rb_tree_nodeISt4pairIKhPFPN4Tins3PDUEPS1_jEEEED1Ev W
_ZNSaISt13_Rb_tree_nodeISt4pairIKhPFPN4Tins3PDUEPS1_jEEEED2Ev W
_ZNSaISt13_Rb_tree_nodeISt4pairIKN4Tins12PacketSender10SocketTypeEiEEEC1Ev W
_ZNSaISt13_Rb_tree_nodeISt4pairIKN4Tins12PacketSender10SocketTypeEiEEEC2Ev W
_ZNSaISt13_Rb_tree_nodeISt4pairIKN4Tins12PacketSender10SocketTypeEiEEED1Ev W
_ZNSaISt13_Rb_tree_nodeISt4pairIKN4Tins12PacketSender10SocketTypeEiEEED2Ev W
_ZNSaISt13_Rb_tree_nodeISt4pairIKN4Tins3PDU7PDUTypeEhEEEC1Ev W
_ZNSaISt13_Rb_tree_nodeISt4pairIKN4Tins3PDU7PDUTypeEhEEEC2Ev W
_ZNSaISt13_Rb_tree_nodeISt4pairIKN4Tins3PDU7PDUTypeEhEEED1Ev W
_ZNSaISt13_Rb_tree_nodeISt4pairIKN4Tins3PDU7PDUTypeEhEEED2Ev W
_ZNSaISt13_Rb_tree_nodeISt4pairIKN4Tins3PDU7PDUTypeEtEEEC1Ev W
_ZNSaISt13_Rb_tree_nodeISt4pairIKN4Tins3PDU7PDUTypeEtEEEC2Ev W
_ZNSaISt13_Rb_tree_nodeISt4pairIKN4Tins3PDU7PDUTypeEtEEED1Ev W
_ZNSaISt13_Rb_tree_nodeISt4pairIKN4Tins3PDU7PDUTypeEtEEED2Ev W
_ZNSaISt13_Rb_tree_nodeISt4pairIKS0_ItS0_IN4Tins11IPv4AddressES2_EENS1_9Internals10IPv4StreamEEEEC1Ev W
_ZNSaISt13_Rb_tree_nodeISt4pairIKS0_ItS0_IN4Tins11IPv4AddressES2_EENS1_9Internals10IPv4StreamEEEEC2Ev W
_ZNSaISt13_Rb_tree_nodeISt4pairIKS0_ItS0_IN4Tins11IPv4AddressES2_EENS1_9Internals10IPv4StreamEEEED1Ev W
_ZNSaISt13_Rb_tree_nodeISt4pairIKS0_ItS0_IN4Tins11IPv4AddressES2_EENS1_9Internals10IPv4StreamEEEED2Ev W
_ZNSaISt13_Rb_tree_nodeISt4pairIKtPFPN4Tins3PDUEPKhjEEEEC1Ev W
_ZNSaISt13_Rb_tree_nodeISt4pairIKtPFPN4Tins3PDUEPKhjEEEEC2Ev W
_ZNSaISt13_Rb_tree_nodeISt4pairIKtPFPN4Tins3PDUEPKhjEEEED1Ev W
_ZNSaISt13_Rb_tree_nodeISt4pairIKtPFPN4Tins3PDUEPKhjEEEED2Ev W
_ZNSaISt4pairIhhEEC1Ev W
_ZNSaISt4pairIhhEEC2Ev W
_ZNSaISt4pairIhhEED1Ev W
_ZNSaISt4pairIhhEED2Ev W
_ZNSaISt4pairIhSt6vectorIhSaIhEEEEC1Ev W
_ZNSaISt4pairIhSt6vectorIhSaIhEEEEC2Ev W
_ZNSaISt4pairIhSt6vectorIhSaIhEEEED1Ev W
_ZNSaISt4pairIhSt6vectorIhSaIhEEEED2Ev W
_ZNSaISt4pairIKhPFPN4Tins3PDUEPS0_jEEEC1ISt13_Rb_tree_nodeIS7_EEERKSaIT_E W
_ZNSaISt4pairIKhPFPN4Tins3PDUEPS0_jEEEC2ISt13_Rb_tree_nodeIS7_EEERKSaIT_E W
_ZNSaISt4pairIKhPFPN4Tins3PDUEPS0_jEEED1Ev W
_ZNSaISt4pairIKhPFPN4Tins3PDUEPS0_jEEED2Ev W
_ZNSaISt4pairIKN4Tins12PacketSender10SocketTypeEiEEC1ISt13_Rb_tree_nodeIS4_EEERKSaIT_E W
_ZNSaISt4pairIKN4Tins12PacketSender10SocketTypeEiEEC2ISt13_Rb_tree_nodeIS4_EEERKSaIT_E W
_ZNSaISt4pairIKN4Tins12PacketSender10SocketTypeEiEED1Ev W
_ZNSaISt4pairIKN4Tins12PacketSender10SocketTypeEiEED2Ev W
_ZNSaISt4pairIKN4Tins3PDU7PDUTypeEhEEC1ISt13_Rb_tree_nodeIS4_EEERKSaIT_E W
_ZNSaISt4pairIKN4Tins3PDU7PDUTypeEhEEC2ISt13_Rb_tree_nodeIS4_EEERKSaIT_E W
_ZNSaISt4pairIKN4Tins3PDU7PDUTypeEhEED1Ev W
_ZNSaISt4pairIKN4Tins3PDU7PDUTypeEhEED2Ev W
_ZNSaISt4pairIKN4Tins3PDU7PDUTypeEtEEC1ISt13_Rb_tree_nodeIS4_EEERKSaIT_E W
_ZNSaISt4pairIKN4Tins3PDU7PDUTypeEtEEC2ISt13_Rb_tree_nodeIS4_EEERKSaIT_E W
_ZNSaISt4pairIKN4Tins3PDU7PDUTypeEtEED1Ev W
_ZNSaISt4pairIKN4Tins3PDU7PDUTypeEtEED2Ev W
_ZNSaISt4pairIKS_ItS_IN4Tins11IPv4AddressES1_EENS0_9Internals10IPv4StreamEEEC1ISt13_Rb_tree_nodeIS7_EEERKSaIT_E W
_ZNSaISt4pairIKS_ItS_IN4Tins11IPv4AddressES1_EENS0_9Internals10IPv4StreamEEEC2ISt13_Rb_tree_nodeIS7_EEERKSaIT_E W
_ZNSaISt4pairIKS_ItS_IN4Tins11IPv4AddressES1_EENS0_9Internals10IPv4StreamEEED1Ev W
_ZNSaISt4pairIKS_ItS_IN4Tins11IPv4AddressES1_EENS0_9Internals10IPv4StreamEEED2Ev W
_ZNSaISt4pairIKtPFPN4Tins3PDUEPKhjEEEC1ISt13_Rb_tree_nodeIS8_EEERKSaIT_E W
_ZNSaISt4pairIKtPFPN4Tins3PDUEPKhjEEEC2ISt13_Rb_tree_nodeIS8_EEERKSaIT_E W
_ZNSaISt4pairIKtPFPN4Tins3PDUEPKhjEEED1Ev W
_ZNSaISt4pairIKtPFPN4Tins3PDUEPKhjEEED2Ev W
_ZNSaISt4pairIPjjEEC1Ev W
_ZNSaISt4pairIPjjEEC2Ev W
_ZNSaISt4pairIPjjEED1Ev W
_ZNSaISt4pairIPjjEED2Ev W
_ZNSaISt6vectorIhSaIhEEEC1ERKS2_ W
_ZNSaISt6vectorIhSaIhEEEC1Ev W
_ZNSaISt6vectorIhSaIhEEEC2ERKS2_ W
_ZNSaISt6vectorIhSaIhEEEC2Ev W
_ZNSaISt6vectorIhSaIhEEED1Ev W
_ZNSaISt6vectorIhSaIhEEED2Ev W
_ZNSaItEC1ERKS_ W
_ZNSaItEC1Ev W
_ZNSaItEC2ERKS_ W
_ZNSaItEC2Ev W
_ZNSaItED1Ev W
_ZNSaItED2Ev W
_ZNSbIwSt11char_traitsIwESaIwEE12_S_constructIN9__gnu_cxx17__normal_iteratorIPcSsEEEEPwT_S9_RKS1_ W
_ZNSbIwSt11char_traitsIwESaIwEE12_S_constructIN9__gnu_cxx17__normal_iteratorIPcSsEEEEPwT_S9_RKS1_St20forward_iterator_tag W
_ZNSbIwSt11char_traitsIwESaIwEE13_S_copy_charsIN9__gnu_cxx17__normal_iteratorIPcSsEEEEvPwT_S9_ W
_ZNSbIwSt11char_traitsIwESaIwEE16_S_construct_auxIN9__gnu_cxx17__normal_iteratorIPcSsEEEEPwT_S9_RKS1_St12__false_type W
_ZNSbIwSt11char_traitsIwESaIwEEC1IN9__gnu_cxx17__normal_iteratorIPcSsEEEET_S8_RKS1_ W
_ZNSbIwSt11char_traitsIwESaIwEEC2IN9__gnu_cxx17__normal_iteratorIPcSsEEEET_S8_RKS1_ W
_ZNSs12_S_constructIPKhEEPcT_S3_RKSaIcE W
_ZNSs12_S_constructIPKhEEPcT_S3_RKSaIcESt20forward_iterator_tag W
_ZNSs13_S_copy_charsIPKhEEvPcT_S3_ W
_ZNSs16_S_construct_auxIPKhEEPcT_S3_RKSaIcESt12__false_type W
_ZNSs19_M_replace_dispatchIPKhEERSsN9__gnu_cxx17__normal_iteratorIPcSsEES6_T_S7_St12__false_type W
_ZNSs6appendIN9__gnu_cxx17__normal_iteratorIPKcSsEEEERSsT_S6_ W
_ZNSs6assignIPKhEERSsT_S3_ W
_ZNSs6insertIPKhEEvN9__gnu_cxx17__normal_iteratorIPcSsEET_S6_ W
_ZNSs7replaceIPKhEERSsN9__gnu_cxx17__normal_iteratorIPcSsEES6_T_S7_ W
_ZNSsC1IPKhEET_S2_RKSaIcE W
_ZNSsC2IPKhEET_S2_RKSaIcE W
_ZNSt10_Iter_baseIN9__gnu_cxx17__normal_iteratorIPcSsEELb0EE7_S_baseES3_ W
_ZNSt10_Iter_baseIN9__gnu_cxx17__normal_iteratorIPcSsEELb1EE7_S_baseES3_ W
_ZNSt10_Iter_baseIN9__gnu_cxx17__normal_iteratorIPhSt6vectorIhSaIhEEEELb1EE7_S_baseES6_ W
_ZNSt10_Iter_baseIN9__gnu_cxx17__normal_iteratorIPKcSsEELb0EE7_S_baseES4_ W
_ZNSt10_Iter_baseIN9__gnu_cxx17__normal_iteratorIPKcSsEELb1EE7_S_baseES4_ W
_ZNSt10_Iter_baseIN9__gnu_cxx17__normal_iteratorIPKhSt6vectorIhSaIhEEEELb0EE7_S_baseES7_ W
_ZNSt10_Iter_baseIN9__gnu_cxx17__normal_iteratorIPKhSt6vectorIhSaIhEEEELb1EE7_S_baseES7_ W
_ZNSt10_Iter_baseIN9__gnu_cxx17__normal_iteratorIPKN4Tins11IPv6AddressESt6vectorIS3_SaIS3_EEEELb0EE7_S_baseES9_ W
_ZNSt10_Iter_baseIN9__gnu_cxx17__normal_iteratorIPKN4Tins11IPv6AddressESt6vectorIS3_SaIS3_EEEELb1EE7_S_baseES9_ W
_ZNSt10_Iter_baseIN9__gnu_cxx17__normal_iteratorIPKN4Tins13ICMPExtensionESt6vectorIS3_SaIS3_EEEELb0EE7_S_baseES9_ W
_ZNSt10_Iter_baseIN9__gnu_cxx17__normal_iteratorIPKN4Tins13ICMPExtensionESt6vectorIS3_SaIS3_EEEELb1EE7_S_baseES9_ W
_ZNSt10_Iter_baseIN9__gnu_cxx17__normal_iteratorIPKN4Tins6ICMPv624multicast_address_recordESt6vectorIS4_SaIS4_EEEELb0EE7_S_baseESA_ W
_ZNSt10_Iter_baseIN9__gnu_cxx17__normal_iteratorIPKN4Tins6ICMPv624multicast_address_recordESt6vectorIS4_SaIS4_EEEELb1EE7_S_baseESA_ W
_ZNSt10_Iter_baseIN9__gnu_cxx17__normal_iteratorIPKN4Tins9PDUOptionINS2_2IP17option_identifierES4_EESt6vectorIS6_SaIS6_EEEELb0EE7_S_baseESC_ W
_ZNSt10_Iter_baseIN9__gnu_cxx17__normal_iteratorIPKN4Tins9PDUOptionINS2_2IP17option_identifierES4_EESt6vectorIS6_SaIS6_EEEELb1EE7_S_baseESC_ W
_ZNSt10_Iter_baseIN9__gnu_cxx17__normal_iteratorIPKSt4pairIhSt6vectorIhSaIhEEES3_IS6_SaIS6_EEEELb0EE7_S_baseESB_ W
_ZNSt10_Iter_baseIN9__gnu_cxx17__normal_iteratorIPKSt4pairIhSt6vectorIhSaIhEEES3_IS6_SaIS6_EEEELb1EE7_S_baseESB_ W
_ZNSt10_Iter_baseIN9__gnu_cxx17__normal_iteratorIPKSt6vectorIhSaIhEES2_IS4_SaIS4_EEEELb0EE7_S_baseES9_ W
_ZNSt10_Iter_baseIN9__gnu_cxx17__normal_iteratorIPKSt6vectorIhSaIhEES2_IS4_SaIS4_EEEELb1EE7_S_baseES9_ W
_ZNSt10_Iter_baseIN9__gnu_cxx17__normal_iteratorIPN4Tins11IPv6AddressESt6vectorIS3_SaIS3_EEEELb1EE7_S_baseES8_ W
_ZNSt10_Iter_baseIN9__gnu_cxx17__normal_iteratorIPN4Tins13ICMPExtensionESt6vectorIS3_SaIS3_EEEELb1EE7_S_baseES8_ W
_ZNSt10_Iter_baseIN9__gnu_cxx17__normal_iteratorIPN4Tins6ICMPv624multicast_address_recordESt6vectorIS4_SaIS4_EEEELb1EE7_S_baseES9_ W
_ZNSt10_Iter_baseIN9__gnu_cxx17__normal_iteratorIPN4Tins9PDUOptionIhNS2_3TCPEEESt6vectorIS5_SaIS5_EEEELb0EE7_S_baseESA_ W
_ZNSt10_Iter_baseIN9__gnu_cxx17__normal_iteratorIPN4Tins9PDUOptionIhNS2_3TCPEEESt6vectorIS5_SaIS5_EEEELb1EE7_S_baseESA_ W
_ZNSt10_Iter_baseIN9__gnu_cxx17__normal_iteratorIPN4Tins9PDUOptionIhNS2_4DHCPEEESt6vectorIS5_SaIS5_EEEELb0EE7_S_baseESA_ W
_ZNSt10_Iter_baseIN9__gnu_cxx17__normal_iteratorIPN4Tins9PDUOptionIhNS2_4DHCPEEESt6vectorIS5_SaIS5_EEEELb1EE7_S_baseESA_ W
_ZNSt10_Iter_baseIN9__gnu_cxx17__normal_iteratorIPN4Tins9PDUOptionIhNS2_6ICMPv6EEESt6vectorIS5_SaIS5_EEEELb0EE7_S_baseESA_ W
_ZNSt10_Iter_baseIN9__gnu_cxx17__normal_iteratorIPN4Tins9PDUOptionIhNS2_6ICMPv6EEESt6vectorIS5_SaIS5_EEEELb1EE7_S_baseESA_ W
_ZNSt10_Iter_baseIN9__gnu_cxx17__normal_iteratorIPN4Tins9PDUOptionINS2_2IP17option_identifierES4_EESt6vectorIS6_SaIS6_EEEELb0EE7_S_baseESB_ W
_ZNSt10_Iter_baseIN9__gnu_cxx17__normal_iteratorIPN4Tins9PDUOptionINS2_2IP17option_identifierES4_EESt6vectorIS6_SaIS6_EEEELb1EE7_S_baseESB_ W
_ZNSt10_Iter_baseIN9__gnu_cxx17__normal_iteratorIPN4Tins9PDUOptionItNS2_6DHCPv6EEESt6vectorIS5_SaIS5_EEEELb0EE7_S_baseESA_ W
_ZNSt10_Iter_baseIN9__gnu_cxx17__normal_iteratorIPN4Tins9PDUOptionItNS2_6DHCPv6EEESt6vectorIS5_SaIS5_EEEELb1EE7_S_baseESA_ W
_ZNSt10_Iter_baseIN9__gnu_cxx17__normal_iteratorIPSt4pairIhSt6vectorIhSaIhEEES3_IS6_SaIS6_EEEELb1EE7_S_baseESA_ W
_ZNSt10_Iter_baseIN9__gnu_cxx17__normal_iteratorIPSt6vectorIhSaIhEES2_IS4_SaIS4_EEEELb1EE7_S_baseES8_ W
_ZNSt10_Iter_baseIPfLb0EE7_S_baseES0_ W
_ZNSt10_Iter_baseIPhLb0EE7_S_baseES0_ W
_ZNSt10_Iter_baseIPiLb0EE7_S_baseES0_ W
_ZNSt10_Iter_baseIPjLb0EE7_S_baseES0_ W
_ZNSt10_Iter_baseIPKhLb0EE7_S_baseES1_ W
_ZNSt10_Iter_baseIPN4Tins11IPv4AddressELb0EE7_S_baseES2_ W
_ZNSt10_Iter_baseIPN4Tins11IPv6AddressELb0EE7_S_baseES2_ W
_ZNSt10_Iter_baseIPN4Tins13ICMPExtensionELb0EE7_S_baseES2_ W
_ZNSt10_Iter_baseIPN4Tins16NetworkInterface10IPv6PrefixELb0EE7_S_baseES3_ W
_ZNSt10_Iter_baseIPN4Tins16NetworkInterfaceELb0EE7_S_baseES2_ W
_ZNSt10_Iter_baseIPN4Tins3DNS5queryELb0EE7_S_baseES3_ W
_ZNSt10_Iter_baseIPN4Tins3DNS8resourceELb0EE7_S_baseES3_ W
_ZNSt10_Iter_baseIPN4Tins5Utils10RouteEntryELb0EE7_S_baseES3_ W
_ZNSt10_Iter_baseIPN4Tins5Utils11Route6EntryELb0EE7_S_baseES3_ W
_ZNSt10_Iter_baseIPN4Tins6ICMPv624multicast_address_recordELb0EE7_S_baseES3_ W
_ZNSt10_Iter_baseIPN4Tins9Internals12IPv4FragmentELb0EE7_S_baseES3_ W
_ZNSt10_Iter_baseIPN4Tins9PDUOptionIhNS0_3TCPEEELb0EE7_S_baseES4_ W
_ZNSt10_Iter_baseIPN4Tins9PDUOptionIhNS0_4DHCPEEELb0EE7_S_baseES4_ W
_ZNSt10_Iter_baseIPN4Tins9PDUOptionIhNS0_4IPv6EEELb0EE7_S_baseES4_ W
_ZNSt10_Iter_baseIPN4Tins9PDUOptionIhNS0_6ICMPv6EEELb0EE7_S_baseES4_ W
_ZNSt10_Iter_baseIPN4Tins9PDUOptionINS0_2IP17option_identifierES2_EELb0EE7_S_baseES5_ W
_ZNSt10_Iter_baseIPN4Tins9PDUOptionINS0_5PPPoE8TagTypesES2_EELb0EE7_S_baseES5_ W
_ZNSt10_Iter_baseIPN4Tins9PDUOptionItNS0_6DHCPv6EEELb0EE7_S_baseES4_ W
_ZNSt10_Iter_baseIPSsLb0EE7_S_baseES0_ W
_ZNSt10_Iter_baseIPSt4pairIhhELb0EE7_S_baseES2_ W
_ZNSt10_Iter_baseIPSt4pairIhSt6vectorIhSaIhEEELb0EE7_S_baseES5_ W
_ZNSt10_Iter_baseIPSt4pairIPjjELb0EE7_S_baseES3_ W
_ZNSt10_Iter_baseIPSt6vectorIhSaIhEELb0EE7_S_baseES3_ W
_ZNSt10_Iter_baseIPtLb0EE7_S_baseES0_ W
_ZNSt11char_traitsIcE6assignERcRKc W
_ZNSt11char_traitsIwE6assignERwRKw W
_ZNSt11__copy_moveILb0ELb0ESt26random_access_iterator_tagE8__copy_mIPcPhEET0_T_S6_S5_ W
_ZNSt11__copy_moveILb0ELb0ESt26random_access_iterator_tagE8__copy_mIPKcPhEET0_T_S7_S6_ W
_ZNSt11__copy_moveILb0ELb0ESt26random_access_iterator_tagE8__copy_mIPKN4Tins11IPv6AddressEPS4_EET0_T_S9_S8_ W
_ZNSt11__copy_moveILb0ELb0ESt26random_access_iterator_tagE8__copy_mIPKN4Tins13ICMPExtensionEPS4_EET0_T_S9_S8_ W
_ZNSt11__copy_moveILb0ELb0ESt26random_access_iterator_tagE8__copy_mIPKN4Tins6ICMPv624multicast_address_recordEPS5_EET0_T_SA_S9_ W
_ZNSt11__copy_moveILb0ELb0ESt26random_access_iterator_tagE8__copy_mIPKN4Tins9PDUOptionINS3_2IP17option_identifierES5_EEPS7_EET0_T_SC_SB_ W
_ZNSt11__copy_moveILb0ELb0ESt26random_access_iterator_tagE8__copy_mIPKSt4pairIhSt6vectorIhSaIhEEEPS7_EET0_T_SC_SB_ W
_ZNSt11__copy_moveILb0ELb0ESt26random_access_iterator_tagE8__copy_mIPKSt6vectorIhSaIhEEPS5_EET0_T_SA_S9_ W
_ZNSt11__copy_moveILb0ELb0ESt26random_access_iterator_tagE8__copy_mIPN4Tins11IPv6AddressES5_EET0_T_S7_S6_ W
_ZNSt11__copy_moveILb0ELb0ESt26random_access_iterator_tagE8__copy_mIPN4Tins13ICMPExtensionES5_EET0_T_S7_S6_ W
_ZNSt11__copy_moveILb0ELb0ESt26random_access_iterator_tagE8__copy_mIPN4Tins6ICMPv624multicast_address_recordES6_EET0_T_S8_S7_ W
_ZNSt11__copy_moveILb0ELb0ESt26random_access_iterator_tagE8__copy_mIPN4Tins9PDUOptionIhNS3_3TCPEEES7_EET0_T_S9_S8_ W
_ZNSt11__copy_moveILb0ELb0ESt26random_access_iterator_tagE8__copy_mIPN4Tins9PDUOptionIhNS3_4DHCPEEES7_EET0_T_S9_S8_ W
_ZNSt11__copy_moveILb0ELb0ESt26random_access_iterator_tagE8__copy_mIPN4Tins9PDUOptionIhNS3_6ICMPv6EEES7_EET0_T_S9_S8_ W
_ZNSt11__copy_moveILb0ELb0ESt26random_access_iterator_tagE8__copy_mIPN4Tins9PDUOptionINS3_2IP17option_identifierES5_EES8_EET0_T_SA_S9_ W
_ZNSt11__copy_moveILb0ELb0ESt26random_access_iterator_tagE8__copy_mIPN4Tins9PDUOptionItNS3_6DHCPv6EEES7_EET0_T_S9_S8_ W
_ZNSt11__copy_moveILb0ELb0ESt26random_access_iterator_tagE8__copy_mIPSt4pairIhSt6vectorIhSaIhEEES8_EET0_T_SA_S9_ W
_ZNSt11__copy_moveILb0ELb0ESt26random_access_iterator_tagE8__copy_mIPSt6vectorIhSaIhEES6_EET0_T_S8_S7_ W
_ZNSt11__copy_moveILb0ELb1ESt26random_access_iterator_tagE8__copy_mIfEEPT_PKS3_S6_S4_ W
_ZNSt11__copy_moveILb0ELb1ESt26random_access_iterator_tagE8__copy_mIhEEPT_PKS3_S6_S4_ W
_ZNSt11__copy_moveILb0ELb1ESt26random_access_iterator_tagE8__copy_mIiEEPT_PKS3_S6_S4_ W
_ZNSt12_Destroy_auxILb0EE9__destroyIN9__gnu_cxx17__normal_iteratorIPN4Tins13ICMPExtensionESt6vectorIS5_SaIS5_EEEEEEvT_SB_ W
_ZNSt12_Destroy_auxILb0EE9__destroyIN9__gnu_cxx17__normal_iteratorIPN4Tins6ICMPv624multicast_address_recordESt6vectorIS6_SaIS6_EEEEEEvT_SC_ W
_ZNSt12_Destroy_auxILb0EE9__destroyIN9__gnu_cxx17__normal_iteratorIPN4Tins9PDUOptionINS4_2IP17option_identifierES6_EESt6vectorIS8_SaIS8_EEEEEEvT_SE_ W
_ZNSt12_Destroy_auxILb0EE9__destroyIN9__gnu_cxx17__normal_iteratorIPSt4pairIhSt6vectorIhSaIhEEES5_IS8_SaIS8_EEEEEEvT_SD_ W
_ZNSt12_Destroy_auxILb0EE9__destroyIN9__gnu_cxx17__normal_iteratorIPSt6vectorIhSaIhEES4_IS6_SaIS6_EEEEEEvT_SB_ W
_ZNSt12_Destroy_auxILb0EE9__destroyIPN4Tins13ICMPExtensionEEEvT_S5_ W
_ZNSt12_Destroy_auxILb0EE9__destroyIPN4Tins3DNS5queryEEEvT_S6_ W
_ZNSt12_Destroy_auxILb0EE9__destroyIPN4Tins3DNS8resourceEEEvT_S6_ W
_ZNSt12_Destroy_auxILb0EE9__destroyIPN4Tins5Utils10RouteEntryEEEvT_S6_ W
_ZNSt12_Destroy_auxILb0EE9__destroyIPN4Tins5Utils11Route6EntryEEEvT_S6_ W
_ZNSt12_Destroy_auxILb0EE9__destroyIPN4Tins6ICMPv624multicast_address_recordEEEvT_S6_ W
_ZNSt12_Destroy_auxILb0EE9__destroyIPN4Tins9Internals12IPv4FragmentEEEvT_S6_ W
_ZNSt12_Destroy_auxILb0EE9__destroyIPN4Tins9PDUOptionIhNS2_3TCPEEEEEvT_S7_ W
_ZNSt12_Destroy_auxILb0EE9__destroyIPN4Tins9PDUOptionIhNS2_4DHCPEEEEEvT_S7_ W
_ZNSt12_Destroy_auxILb0EE9__destroyIPN4Tins9PDUOptionIhNS2_4IPv6EEEEEvT_S7_ W
_ZNSt12_Destroy_auxILb0EE9__destroyIPN4Tins9PDUOptionIhNS2_6ICMPv6EEEEEvT_S7_ W
_ZNSt12_Destroy_auxILb0EE9__destroyIPN4Tins9PDUOptionINS2_2IP17option_identifierES4_EEEEvT_S8_ W
_ZNSt12_Destroy_auxILb0EE9__destroyIPN4Tins9PDUOptionINS2_5PPPoE8TagTypesES4_EEEEvT_S8_ W
_ZNSt12_Destroy_auxILb0EE9__destroyIPN4Tins9PDUOptionItNS2_6DHCPv6EEEEEvT_S7_ W
_ZNSt12_Destroy_auxILb0EE9__destroyIPSsEEvT_S3_ W
_ZNSt12_Destroy_auxILb0EE9__destroyIPSt4pairIhSt6vectorIhSaIhEEEEEvT_S8_ W
_ZNSt12_Destroy_auxILb0EE9__destroyIPSt6vectorIhSaIhEEEEvT_S6_ W
_ZNSt12_Destroy_auxILb1EE9__destroyIN9__gnu_cxx17__normal_iteratorIPhSt6vectorIhSaIhEEEEEEvT_S9_ W
_ZNSt12_Destroy_auxILb1EE9__destroyIN9__gnu_cxx17__normal_iteratorIPN4Tins11IPv6AddressESt6vectorIS5_SaIS5_EEEEEEvT_SB_ W
_ZNSt12_Destroy_auxILb1EE9__destroyIPfEEvT_S3_ W
_ZNSt12_Destroy_auxILb1EE9__destroyIPhEEvT_S3_ W
_ZNSt12_Destroy_auxILb1EE9__destroyIPiEEvT_S3_ W
_ZNSt12_Destroy_auxILb1EE9__destroyIPjEEvT_S3_ W
_ZNSt12_Destroy_auxILb1EE9__destroyIPN4Tins11IPv4AddressEEEvT_S5_ W
_ZNSt12_Destroy_auxILb1EE9__destroyIPN4Tins11IPv6AddressEEEvT_S5_ W
_ZNSt12_Destroy_auxILb1EE9__destroyIPN4Tins16NetworkInterface10IPv6PrefixEEEvT_S6_ W
_ZNSt12_Destroy_auxILb1EE9__destroyIPN4Tins16NetworkInterfaceEEEvT_S5_ W
_ZNSt12_Destroy_auxILb1EE9__destroyIPSt4pairIhhEEEvT_S5_ W
_ZNSt12_Destroy_auxILb1EE9__destroyIPSt4pairIPjjEEEvT_S6_ W
_ZNSt12_Destroy_auxILb1EE9__destroyIPtEEvT_S3_ W
_ZNSt12_Vector_baseIfSaIfEE11_M_allocateEm W
_ZNSt12_Vector_baseIfSaIfEE12_Vector_implC1Ev W
_ZNSt12_Vector_baseIfSaIfEE12_Vector_implC2Ev W
_ZNSt12_Vector_baseIfSaIfEE12_Vector_implD1Ev W
_ZNSt12_Vector_baseIfSaIfEE12_Vector_implD2Ev W
_ZNSt12_Vector_baseIfSaIfEE13_M_deallocateEPfm W
_ZNSt12_Vector_baseIfSaIfEE19_M_get_Tp_allocatorEv W
_ZNSt12_Vector_baseIfSaIfEEC1Ev W
_ZNSt12_Vector_baseIfSaIfEEC2Ev W
_ZNSt12_Vector_baseIfSaIfEED1Ev W
_ZNSt12_Vector_baseIfSaIfEED2Ev W
_ZNSt12_Vector_baseIhSaIhEE11_M_allocateEm W
_ZNSt12_Vector_baseIhSaIhEE12_Vector_implC1ERKS0_ W
_ZNSt12_Vector_baseIhSaIhEE12_Vector_implC1Ev W
_ZNSt12_Vector_baseIhSaIhEE12_Vector_implC2ERKS0_ W
_ZNSt12_Vector_baseIhSaIhEE12_Vector_implC2Ev W
_ZNSt12_Vector_baseIhSaIhEE12_Vector_implD1Ev W
_ZNSt12_Vector_baseIhSaIhEE12_Vector_implD2Ev W
_ZNSt12_Vector_baseIhSaIhEE13_M_deallocateEPhm W
_ZNSt12_Vector_baseIhSaIhEE17_M_create_storageEm W
_ZNSt12_Vector_baseIhSaIhEE19_M_get_Tp_allocatorEv W
_ZNSt12_Vector_baseIhSaIhEEC1EmRKS0_ W
_ZNSt12_Vector_baseIhSaIhEEC1ERKS0_ W
_ZNSt12_Vector_baseIhSaIhEEC1Ev W
_ZNSt12_Vector_baseIhSaIhEEC2EmRKS0_ W
_ZNSt12_Vector_baseIhSaIhEEC2ERKS0_ W
_ZNSt12_Vector_baseIhSaIhEEC2Ev W
_ZNSt12_Vector_baseIhSaIhEED1Ev W
_ZNSt12_Vector_baseIhSaIhEED2Ev W
_ZNSt12_Vector_baseIiSaIiEE11_M_allocateEm W
_ZNSt12_Vector_baseIiSaIiEE12_Vector_implC1ERKS0_ W
_ZNSt12_Vector_baseIiSaIiEE12_Vector_implC2ERKS0_ W
_ZNSt12_Vector_baseIiSaIiEE12_Vector_implD1Ev W
_ZNSt12_Vector_baseIiSaIiEE12_Vector_implD2Ev W
_ZNSt12_Vector_baseIiSaIiEE13_M_deallocateEPim W
_ZNSt12_Vector_baseIiSaIiEE17_M_create_storageEm W
_ZNSt12_Vector_baseIiSaIiEE19_M_get_Tp_allocatorEv W
_ZNSt12_Vector_baseIiSaIiEEC1EmRKS0_ W
_ZNSt12_Vector_baseIiSaIiEEC1ERKS0_ W
_ZNSt12_Vector_baseIiSaIiEEC2EmRKS0_ W
_ZNSt12_Vector_baseIiSaIiEEC2ERKS0_ W
_ZNSt12_Vector_baseIiSaIiEED1Ev W
_ZNSt12_Vector_baseIiSaIiEED2Ev W
_ZNSt12_Vector_baseIjSaIjEE11_M_allocateEm W
_ZNSt12_Vector_baseIjSaIjEE12_Vector_implC1ERKS0_ W
_ZNSt12_Vector_baseIjSaIjEE12_Vector_implC2ERKS0_ W
_ZNSt12_Vector_baseIjSaIjEE12_Vector_implD1Ev W
_ZNSt12_Vector_baseIjSaIjEE12_Vector_implD2Ev W
_ZNSt12_Vector_baseIjSaIjEE13_M_deallocateEPjm W
_ZNSt12_Vector_baseIjSaIjEE17_M_create_storageEm W
_ZNSt12_Vector_baseIjSaIjEE19_M_get_Tp_allocatorEv W
_ZNSt12_Vector_baseIjSaIjEEC1EmRKS0_ W
_ZNSt12_Vector_baseIjSaIjEEC2EmRKS0_ W
_ZNSt12_Vector_baseIjSaIjEED1Ev W
_ZNSt12_Vector_baseIjSaIjEED2Ev W
_ZNSt12_Vector_baseIN4Tins11IPv4AddressESaIS1_EE11_M_allocateEm W
_ZNSt12_Vector_baseIN4Tins11IPv4AddressESaIS1_EE12_Vector_implC1ERKS2_ W
_ZNSt12_Vector_baseIN4Tins11IPv4AddressESaIS1_EE12_Vector_implC1Ev W
_ZNSt12_Vector_baseIN4Tins11IPv4AddressESaIS1_EE12_Vector_implC2ERKS2_ W
_ZNSt12_Vector_baseIN4Tins11IPv4AddressESaIS1_EE12_Vector_implC2Ev W
_ZNSt12_Vector_baseIN4Tins11IPv4AddressESaIS1_EE12_Vector_implD1Ev W
_ZNSt12_Vector_baseIN4Tins11IPv4AddressESaIS1_EE12_Vector_implD2Ev W
_ZNSt12_Vector_baseIN4Tins11IPv4AddressESaIS1_EE13_M_deallocateEPS1_m W
_ZNSt12_Vector_baseIN4Tins11IPv4AddressESaIS1_EE17_M_create_storageEm W
_ZNSt12_Vector_baseIN4Tins11IPv4AddressESaIS1_EE19_M_get_Tp_allocatorEv W
_ZNSt12_Vector_baseIN4Tins11IPv4AddressESaIS1_EEC1EmRKS2_ W
_ZNSt12_Vector_baseIN4Tins11IPv4AddressESaIS1_EEC1Ev W
_ZNSt12_Vector_baseIN4Tins11IPv4AddressESaIS1_EEC2EmRKS2_ W
_ZNSt12_Vector_baseIN4Tins11IPv4AddressESaIS1_EEC2Ev W
_ZNSt12_Vector_baseIN4Tins11IPv4AddressESaIS1_EED1Ev W
_ZNSt12_Vector_baseIN4Tins11IPv4AddressESaIS1_EED2Ev W
_ZNSt12_Vector_baseIN4Tins11IPv6AddressESaIS1_EE11_M_allocateEm W
_ZNSt12_Vector_baseIN4Tins11IPv6AddressESaIS1_EE12_Vector_implC1ERKS2_ W
_ZNSt12_Vector_baseIN4Tins11IPv6AddressESaIS1_EE12_Vector_implC1Ev W
_ZNSt12_Vector_baseIN4Tins11IPv6AddressESaIS1_EE12_Vector_implC2ERKS2_ W
_ZNSt12_Vector_baseIN4Tins11IPv6AddressESaIS1_EE12_Vector_implC2Ev W
_ZNSt12_Vector_baseIN4Tins11IPv6AddressESaIS1_EE12_Vector_implD1Ev W
_ZNSt12_Vector_baseIN4Tins11IPv6AddressESaIS1_EE12_Vector_implD2Ev W
_ZNSt12_Vector_baseIN4Tins11IPv6AddressESaIS1_EE13_M_deallocateEPS1_m W
_ZNSt12_Vector_baseIN4Tins11IPv6AddressESaIS1_EE17_M_create_storageEm W
_ZNSt12_Vector_baseIN4Tins11IPv6AddressESaIS1_EE19_M_get_Tp_allocatorEv W
_ZNSt12_Vector_baseIN4Tins11IPv6AddressESaIS1_EEC1EmRKS2_ W
_ZNSt12_Vector_baseIN4Tins11IPv6AddressESaIS1_EEC1Ev W
_ZNSt12_Vector_baseIN4Tins11IPv6AddressESaIS1_EEC2EmRKS2_ W
_ZNSt12_Vector_baseIN4Tins11IPv6AddressESaIS1_EEC2Ev W
_ZNSt12_Vector_baseIN4Tins11IPv6AddressESaIS1_EED1Ev W
_ZNSt12_Vector_baseIN4Tins11IPv6AddressESaIS1_EED2Ev W
_ZNSt12_Vector_baseIN4Tins13ICMPExtensionESaIS1_EE11_M_allocateEm W
_ZNSt12_Vector_baseIN4Tins13ICMPExtensionESaIS1_EE12_Vector_implC1ERKS2_ W
_ZNSt12_Vector_baseIN4Tins13ICMPExtensionESaIS1_EE12_Vector_implC1Ev W
_ZNSt12_Vector_baseIN4Tins13ICMPExtensionESaIS1_EE12_Vector_implC2ERKS2_ W
_ZNSt12_Vector_baseIN4Tins13ICMPExtensionESaIS1_EE12_Vector_implC2Ev W
_ZNSt12_Vector_baseIN4Tins13ICMPExtensionESaIS1_EE12_Vector_implD1Ev W
_ZNSt12_Vector_baseIN4Tins13ICMPExtensionESaIS1_EE12_Vector_implD2Ev W
_ZNSt12_Vector_baseIN4Tins13ICMPExtensionESaIS1_EE13_M_deallocateEPS1_m W
_ZNSt12_Vector_baseIN4Tins13ICMPExtensionESaIS1_EE17_M_create_storageEm W
_ZNSt12_Vector_baseIN4Tins13ICMPExtensionESaIS1_EE19_M_get_Tp_allocatorEv W
_ZNSt12_Vector_baseIN4Tins13ICMPExtensionESaIS1_EEC1EmRKS2_ W
_ZNSt12_Vector_baseIN4Tins13ICMPExtensionESaIS1_EEC1Ev W
_ZNSt12_Vector_baseIN4Tins13ICMPExtensionESaIS1_EEC2EmRKS2_ W
_ZNSt12_Vector_baseIN4Tins13ICMPExtensionESaIS1_EEC2Ev W
_ZNSt12_Vector_baseIN4Tins13ICMPExtensionESaIS1_EED1Ev W
_ZNSt12_Vector_baseIN4Tins13ICMPExtensionESaIS1_EED2Ev W
_ZNSt12_Vector_baseIN4Tins16NetworkInterface10IPv6PrefixESaIS2_EE11_M_allocateEm W
_ZNSt12_Vector_baseIN4Tins16NetworkInterface10IPv6PrefixESaIS2_EE12_Vector_implC1ERKS3_ W
_ZNSt12_Vector_baseIN4Tins16NetworkInterface10IPv6PrefixESaIS2_EE12_Vector_implC1Ev W
_ZNSt12_Vector_baseIN4Tins16NetworkInterface10IPv6PrefixESaIS2_EE12_Vector_implC2ERKS3_ W
_ZNSt12_Vector_baseIN4Tins16NetworkInterface10IPv6PrefixESaIS2_EE12_Vector_implC2Ev W
_ZNSt12_Vector_baseIN4Tins16NetworkInterface10IPv6PrefixESaIS2_EE12_Vector_implD1Ev W
_ZNSt12_Vector_baseIN4Tins16NetworkInterface10IPv6PrefixESaIS2_EE12_Vector_implD2Ev W
_ZNSt12_Vector_baseIN4Tins16NetworkInterface10IPv6PrefixESaIS2_EE13_M_deallocateEPS2_m W
_ZNSt12_Vector_baseIN4Tins16NetworkInterface10IPv6PrefixESaIS2_EE17_M_create_storageEm W
_ZNSt12_Vector_baseIN4Tins16NetworkInterface10IPv6PrefixESaIS2_EE19_M_get_Tp_allocatorEv W
_ZNSt12_Vector_baseIN4Tins16NetworkInterface10IPv6PrefixESaIS2_EEC1EmRKS3_ W
_ZNSt12_Vector_baseIN4Tins16NetworkInterface10IPv6PrefixESaIS2_EEC1Ev W
_ZNSt12_Vector_baseIN4Tins16NetworkInterface10IPv6PrefixESaIS2_EEC2EmRKS3_ W
_ZNSt12_Vector_baseIN4Tins16NetworkInterface10IPv6PrefixESaIS2_EEC2Ev W
_ZNSt12_Vector_baseIN4Tins16NetworkInterface10IPv6PrefixESaIS2_EED1Ev W
_ZNSt12_Vector_baseIN4Tins16NetworkInterface10IPv6PrefixESaIS2_EED2Ev W
_ZNSt12_Vector_baseIN4Tins16NetworkInterfaceESaIS1_EE11_M_allocateEm W
_ZNSt12_Vector_baseIN4Tins16NetworkInterfaceESaIS1_EE12_Vector_implC1Ev W
_ZNSt12_Vector_baseIN4Tins16NetworkInterfaceESaIS1_EE12_Vector_implC2Ev W
_ZNSt12_Vector_baseIN4Tins16NetworkInterfaceESaIS1_EE12_Vector_implD1Ev W
_ZNSt12_Vector_baseIN4Tins16NetworkInterfaceESaIS1_EE12_Vector_implD2Ev W
_ZNSt12_Vector_baseIN4Tins16NetworkInterfaceESaIS1_EE13_M_deallocateEPS1_m W
_ZNSt12_Vector_baseIN4Tins16NetworkInterfaceESaIS1_EE19_M_get_Tp_allocatorEv W
_ZNSt12_Vector_baseIN4Tins16NetworkInterfaceESaIS1_EEC1Ev W
_ZNSt12_Vector_baseIN4Tins16NetworkInterfaceESaIS1_EEC2Ev W
_ZNSt12_Vector_baseIN4Tins16NetworkInterfaceESaIS1_EED1Ev W
_ZNSt12_Vector_baseIN4Tins16NetworkInterfaceESaIS1_EED2Ev W
_ZNSt12_Vector_baseIN4Tins3DNS5queryESaIS2_EE11_M_allocateEm W
_ZNSt12_Vector_baseIN4Tins3DNS5queryESaIS2_EE12_Vector_implC1Ev W
_ZNSt12_Vector_baseIN4Tins3DNS5queryESaIS2_EE12_Vector_implC2Ev W
_ZNSt12_Vector_baseIN4Tins3DNS5queryESaIS2_EE12_Vector_implD1Ev W
_ZNSt12_Vector_baseIN4Tins3DNS5queryESaIS2_EE12_Vector_implD2Ev W
_ZNSt12_Vector_baseIN4Tins3DNS5queryESaIS2_EE13_M_deallocateEPS2_m W
_ZNSt12_Vector_baseIN4Tins3DNS5queryESaIS2_EE19_M_get_Tp_allocatorEv W
_ZNSt12_Vector_baseIN4Tins3DNS5queryESaIS2_EEC1Ev W
_ZNSt12_Vector_baseIN4Tins3DNS5queryESaIS2_EEC2Ev W
_ZNSt12_Vector_baseIN4Tins3DNS5queryESaIS2_EED1Ev W
_ZNSt12_Vector_baseIN4Tins3DNS5queryESaIS2_EED2Ev W
_ZNSt12_Vector_baseIN4Tins3DNS8resourceESaIS2_EE11_M_allocateEm W
_ZNSt12_Vector_baseIN4Tins3DNS8resourceESaIS2_EE12_Vector_implC1Ev W
_ZNSt12_Vector_baseIN4Tins3DNS8resourceESaIS2_EE12_Vector_implC2Ev W
_ZNSt12_Vector_baseIN4Tins3DNS8resourceESaIS2_EE12_Vector_implD1Ev W
_ZNSt12_Vector_baseIN4Tins3DNS8resourceESaIS2_EE12_Vector_implD2Ev W
_ZNSt12_Vector_baseIN4Tins3DNS8resourceESaIS2_EE13_M_deallocateEPS2_m W
_ZNSt12_Vector_baseIN4Tins3DNS8resourceESaIS2_EE19_M_get_Tp_allocatorEv W
_ZNSt12_Vector_baseIN4Tins3DNS8resourceESaIS2_EEC1Ev W
_ZNSt12_Vector_baseIN4Tins3DNS8resourceESaIS2_EEC2Ev W
_ZNSt12_Vector_baseIN4Tins3DNS8resourceESaIS2_EED1Ev W
_ZNSt12_Vector_baseIN4Tins3DNS8resourceESaIS2_EED2Ev W
_ZNSt12_Vector_baseIN4Tins5Utils10RouteEntryESaIS2_EE11_M_allocateEm W
_ZNSt12_Vector_baseIN4Tins5Utils10RouteEntryESaIS2_EE12_Vector_implC1Ev W
_ZNSt12_Vector_baseIN4Tins5Utils10RouteEntryESaIS2_EE12_Vector_implC2Ev W
_ZNSt12_Vector_baseIN4Tins5Utils10RouteEntryESaIS2_EE12_Vector_implD1Ev W
_ZNSt12_Vector_baseIN4Tins5Utils10RouteEntryESaIS2_EE12_Vector_implD2Ev W
_ZNSt12_Vector_baseIN4Tins5Utils10RouteEntryESaIS2_EE13_M_deallocateEPS2_m W
_ZNSt12_Vector_baseIN4Tins5Utils10RouteEntryESaIS2_EE19_M_get_Tp_allocatorEv W
_ZNSt12_Vector_baseIN4Tins5Utils10RouteEntryESaIS2_EEC1Ev W
_ZNSt12_Vector_baseIN4Tins5Utils10RouteEntryESaIS2_EEC2Ev W
_ZNSt12_Vector_baseIN4Tins5Utils10RouteEntryESaIS2_EED1Ev W
_ZNSt12_Vector_baseIN4Tins5Utils10RouteEntryESaIS2_EED2Ev W
_ZNSt12_Vector_baseIN4Tins5Utils11Route6EntryESaIS2_EE11_M_allocateEm W
_ZNSt12_Vector_baseIN4Tins5Utils11Route6EntryESaIS2_EE12_Vector_implC1Ev W
_ZNSt12_Vector_baseIN4Tins5Utils11Route6EntryESaIS2_EE12_Vector_implC2Ev W
_ZNSt12_Vector_baseIN4Tins5Utils11Route6EntryESaIS2_EE12_Vector_implD1Ev W
_ZNSt12_Vector_baseIN4Tins5Utils11Route6EntryESaIS2_EE12_Vector_implD2Ev W
_ZNSt12_Vector_baseIN4Tins5Utils11Route6EntryESaIS2_EE13_M_deallocateEPS2_m W
_ZNSt12_Vector_baseIN4Tins5Utils11Route6EntryESaIS2_EE19_M_get_Tp_allocatorEv W
_ZNSt12_Vector_baseIN4Tins5Utils11Route6EntryESaIS2_EEC1Ev W
_ZNSt12_Vector_baseIN4Tins5Utils11Route6EntryESaIS2_EEC2Ev W
_ZNSt12_Vector_baseIN4Tins5Utils11Route6EntryESaIS2_EED1Ev W
_ZNSt12_Vector_baseIN4Tins5Utils11Route6EntryESaIS2_EED2Ev W
_ZNSt12_Vector_baseIN4Tins6ICMPv624multicast_address_recordESaIS2_EE11_M_allocateEm W
_ZNSt12_Vector_baseIN4Tins6ICMPv624multicast_address_recordESaIS2_EE12_Vector_implC1ERKS3_ W
_ZNSt12_Vector_baseIN4Tins6ICMPv624multicast_address_recordESaIS2_EE12_Vector_implC1Ev W
_ZNSt12_Vector_baseIN4Tins6ICMPv624multicast_address_recordESaIS2_EE12_Vector_implC2ERKS3_ W
_ZNSt12_Vector_baseIN4Tins6ICMPv624multicast_address_recordESaIS2_EE12_Vector_implC2Ev W
_ZNSt12_Vector_baseIN4Tins6ICMPv624multicast_address_recordESaIS2_EE12_Vector_implD1Ev W
_ZNSt12_Vector_baseIN4Tins6ICMPv624multicast_address_recordESaIS2_EE12_Vector_implD2Ev W
_ZNSt12_Vector_baseIN4Tins6ICMPv624multicast_address_recordESaIS2_EE13_M_deallocateEPS2_m W
_ZNSt12_Vector_baseIN4Tins6ICMPv624multicast_address_recordESaIS2_EE17_M_create_storageEm W
_ZNSt12_Vector_baseIN4Tins6ICMPv624multicast_address_recordESaIS2_EE19_M_get_Tp_allocatorEv W
_ZNSt12_Vector_baseIN4Tins6ICMPv624multicast_address_recordESaIS2_EEC1EmRKS3_ W
_ZNSt12_Vector_baseIN4Tins6ICMPv624multicast_address_recordESaIS2_EEC1Ev W
_ZNSt12_Vector_baseIN4Tins6ICMPv624multicast_address_recordESaIS2_EEC2EmRKS3_ W
_ZNSt12_Vector_baseIN4Tins6ICMPv624multicast_address_recordESaIS2_EEC2Ev W
_ZNSt12_Vector_baseIN4Tins6ICMPv624multicast_address_recordESaIS2_EED1Ev W
_ZNSt12_Vector_baseIN4Tins6ICMPv624multicast_address_recordESaIS2_EED2Ev W
_ZNSt12_Vector_baseIN4Tins9Internals12IPv4FragmentESaIS2_EE11_M_allocateEm W
_ZNSt12_Vector_baseIN4Tins9Internals12IPv4FragmentESaIS2_EE12_Vector_implC1ERKS3_ W
_ZNSt12_Vector_baseIN4Tins9Internals12IPv4FragmentESaIS2_EE12_Vector_implC1Ev W
_ZNSt12_Vector_baseIN4Tins9Internals12IPv4FragmentESaIS2_EE12_Vector_implC2ERKS3_ W
_ZNSt12_Vector_baseIN4Tins9Internals12IPv4FragmentESaIS2_EE12_Vector_implC2Ev W
_ZNSt12_Vector_baseIN4Tins9Internals12IPv4FragmentESaIS2_EE12_Vector_implD1Ev W
_ZNSt12_Vector_baseIN4Tins9Internals12IPv4FragmentESaIS2_EE12_Vector_implD2Ev W
_ZNSt12_Vector_baseIN4Tins9Internals12IPv4FragmentESaIS2_EE13_M_deallocateEPS2_m W
_ZNSt12_Vector_baseIN4Tins9Internals12IPv4FragmentESaIS2_EE17_M_create_storageEm W
_ZNSt12_Vector_baseIN4Tins9Internals12IPv4FragmentESaIS2_EE19_M_get_Tp_allocatorEv W
_ZNSt12_Vector_baseIN4Tins9Internals12IPv4FragmentESaIS2_EEC1EmRKS3_ W
_ZNSt12_Vector_baseIN4Tins9Internals12IPv4FragmentESaIS2_EEC1Ev W
_ZNSt12_Vector_baseIN4Tins9Internals12IPv4FragmentESaIS2_EEC2EmRKS3_ W
_ZNSt12_Vector_baseIN4Tins9Internals12IPv4FragmentESaIS2_EEC2Ev W
_ZNSt12_Vector_baseIN4Tins9Internals12IPv4FragmentESaIS2_EED1Ev W
_ZNSt12_Vector_baseIN4Tins9Internals12IPv4FragmentESaIS2_EED2Ev W
_ZNSt12_Vector_baseIN4Tins9PDUOptionIhNS0_3TCPEEESaIS3_EE11_M_allocateEm W
_ZNSt12_Vector_baseIN4Tins9PDUOptionIhNS0_3TCPEEESaIS3_EE12_Vector_implC1ERKS4_ W
_ZNSt12_Vector_baseIN4Tins9PDUOptionIhNS0_3TCPEEESaIS3_EE12_Vector_implC1Ev W
_ZNSt12_Vector_baseIN4Tins9PDUOptionIhNS0_3TCPEEESaIS3_EE12_Vector_implC2ERKS4_ W
_ZNSt12_Vector_baseIN4Tins9PDUOptionIhNS0_3TCPEEESaIS3_EE12_Vector_implC2Ev W
_ZNSt12_Vector_baseIN4Tins9PDUOptionIhNS0_3TCPEEESaIS3_EE12_Vector_implD1Ev W
_ZNSt12_Vector_baseIN4Tins9PDUOptionIhNS0_3TCPEEESaIS3_EE12_Vector_implD2Ev W
_ZNSt12_Vector_baseIN4Tins9PDUOptionIhNS0_3TCPEEESaIS3_EE13_M_deallocateEPS3_m W
_ZNSt12_Vector_baseIN4Tins9PDUOptionIhNS0_3TCPEEESaIS3_EE17_M_create_storageEm W
_ZNSt12_Vector_baseIN4Tins9PDUOptionIhNS0_3TCPEEESaIS3_EE19_M_get_Tp_allocatorEv W
_ZNSt12_Vector_baseIN4Tins9PDUOptionIhNS0_3TCPEEESaIS3_EEC1EmRKS4_ W
_ZNSt12_Vector_baseIN4Tins9PDUOptionIhNS0_3TCPEEESaIS3_EEC1Ev W
_ZNSt12_Vector_baseIN4Tins9PDUOptionIhNS0_3TCPEEESaIS3_EEC2EmRKS4_ W
_ZNSt12_Vector_baseIN4Tins9PDUOptionIhNS0_3TCPEEESaIS3_EEC2Ev W
_ZNSt12_Vector_baseIN4Tins9PDUOptionIhNS0_3TCPEEESaIS3_EED1Ev W
_ZNSt12_Vector_baseIN4Tins9PDUOptionIhNS0_3TCPEEESaIS3_EED2Ev W
_ZNSt12_Vector_baseIN4Tins9PDUOptionIhNS0_4DHCPEEESaIS3_EE11_M_allocateEm W
_ZNSt12_Vector_baseIN4Tins9PDUOptionIhNS0_4DHCPEEESaIS3_EE12_Vector_implC1ERKS4_ W
_ZNSt12_Vector_baseIN4Tins9PDUOptionIhNS0_4DHCPEEESaIS3_EE12_Vector_implC1Ev W
_ZNSt12_Vector_baseIN4Tins9PDUOptionIhNS0_4DHCPEEESaIS3_EE12_Vector_implC2ERKS4_ W
_ZNSt12_Vector_baseIN4Tins9PDUOptionIhNS0_4DHCPEEESaIS3_EE12_Vector_implC2Ev W
_ZNSt12_Vector_baseIN4Tins9PDUOptionIhNS0_4DHCPEEESaIS3_EE12_Vector_implD1Ev W
_ZNSt12_Vector_baseIN4Tins9PDUOptionIhNS0_4DHCPEEESaIS3_EE12_Vector_implD2Ev W
_ZNSt12_Vector_baseIN4Tins9PDUOptionIhNS0_4DHCPEEESaIS3_EE13_M_deallocateEPS3_m W
_ZNSt12_Vector_baseIN4Tins9PDUOptionIhNS0_4DHCPEEESaIS3_EE17_M_create_storageEm W
_ZNSt12_Vector_baseIN4Tins9PDUOptionIhNS0_4DHCPEEESaIS3_EE19_M_get_Tp_allocatorEv W
_ZNSt12_Vector_baseIN4Tins9PDUOptionIhNS0_4DHCPEEESaIS3_EEC1EmRKS4_ W
_ZNSt12_Vector_baseIN4Tins9PDUOptionIhNS0_4DHCPEEESaIS3_EEC1Ev W
_ZNSt12_Vector_baseIN4Tins9PDUOptionIhNS0_4DHCPEEESaIS3_EEC2EmRKS4_ W
_ZNSt12_Vector_baseIN4Tins9PDUOptionIhNS0_4DHCPEEESaIS3_EEC2Ev W
_ZNSt12_Vector_baseIN4Tins9PDUOptionIhNS0_4DHCPEEESaIS3_EED1Ev W
_ZNSt12_Vector_baseIN4Tins9PDUOptionIhNS0_4DHCPEEESaIS3_EED2Ev W
_ZNSt12_Vector_baseIN4Tins9PDUOptionIhNS0_4IPv6EEESaIS3_EE11_M_allocateEm W
_ZNSt12_Vector_baseIN4Tins9PDUOptionIhNS0_4IPv6EEESaIS3_EE12_Vector_implC1ERKS4_ W
_ZNSt12_Vector_baseIN4Tins9PDUOptionIhNS0_4IPv6EEESaIS3_EE12_Vector_implC1Ev W
_ZNSt12_Vector_baseIN4Tins9PDUOptionIhNS0_4IPv6EEESaIS3_EE12_Vector_implC2ERKS4_ W
_ZNSt12_Vector_baseIN4Tins9PDUOptionIhNS0_4IPv6EEESaIS3_EE12_Vector_implC2Ev W
_ZNSt12_Vector_baseIN4Tins9PDUOptionIhNS0_4IPv6EEESaIS3_EE12_Vector_implD1Ev W
_ZNSt12_Vector_baseIN4Tins9PDUOptionIhNS0_4IPv6EEESaIS3_EE12_Vector_implD2Ev W
_ZNSt12_Vector_baseIN4Tins9PDUOptionIhNS0_4IPv6EEESaIS3_EE13_M_deallocateEPS3_m W
_ZNSt12_Vector_baseIN4Tins9PDUOptionIhNS0_4IPv6EEESaIS3_EE17_M_create_storageEm W
_ZNSt12_Vector_baseIN4Tins9PDUOptionIhNS0_4IPv6EEESaIS3_EE19_M_get_Tp_allocatorEv W
_ZNSt12_Vector_baseIN4Tins9PDUOptionIhNS0_4IPv6EEESaIS3_EEC1EmRKS4_ W
_ZNSt12_Vector_baseIN4Tins9PDUOptionIhNS0_4IPv6EEESaIS3_EEC1Ev W
_ZNSt12_Vector_baseIN4Tins9PDUOptionIhNS0_4IPv6EEESaIS3_EEC2EmRKS4_ W
_ZNSt12_Vector_baseIN4Tins9PDUOptionIhNS0_4IPv6EEESaIS3_EEC2Ev W
_ZNSt12_Vector_baseIN4Tins9PDUOptionIhNS0_4IPv6EEESaIS3_EED1Ev W
_ZNSt12_Vector_baseIN4Tins9PDUOptionIhNS0_4IPv6EEESaIS3_EED2Ev W
_ZNSt12_Vector_baseIN4Tins9PDUOptionIhNS0_6ICMPv6EEESaIS3_EE11_M_allocateEm W
_ZNSt12_Vector_baseIN4Tins9PDUOptionIhNS0_6ICMPv6EEESaIS3_EE12_Vector_implC1ERKS4_ W
_ZNSt12_Vector_baseIN4Tins9PDUOptionIhNS0_6ICMPv6EEESaIS3_EE12_Vector_implC1Ev W
_ZNSt12_Vector_baseIN4Tins9PDUOptionIhNS0_6ICMPv6EEESaIS3_EE12_Vector_implC2ERKS4_ W
_ZNSt12_Vector_baseIN4Tins9PDUOptionIhNS0_6ICMPv6EEESaIS3_EE12_Vector_implC2Ev W
_ZNSt12_Vector_baseIN4Tins9PDUOptionIhNS0_6ICMPv6EEESaIS3_EE12_Vector_implD1Ev W
_ZNSt12_Vector_baseIN4Tins9PDUOptionIhNS0_6ICMPv6EEESaIS3_EE12_Vector_implD2Ev W
_ZNSt12_Vector_baseIN4Tins9PDUOptionIhNS0_6ICMPv6EEESaIS3_EE13_M_deallocateEPS3_m W
_ZNSt12_Vector_baseIN4Tins9PDUOptionIhNS0_6ICMPv6EEESaIS3_EE17_M_create_storageEm W
_ZNSt12_Vector_baseIN4Tins9PDUOptionIhNS0_6ICMPv6EEESaIS3_EE19_M_get_Tp_allocatorEv W
_ZNSt12_Vector_baseIN4Tins9PDUOptionIhNS0_6ICMPv6EEESaIS3_EEC1EmRKS4_ W
_ZNSt12_Vector_baseIN4Tins9PDUOptionIhNS0_6ICMPv6EEESaIS3_EEC1Ev W
_ZNSt12_Vector_baseIN4Tins9PDUOptionIhNS0_6ICMPv6EEESaIS3_EEC2EmRKS4_ W
_ZNSt12_Vector_baseIN4Tins9PDUOptionIhNS0_6ICMPv6EEESaIS3_EEC2Ev W
_ZNSt12_Vector_baseIN4Tins9PDUOptionIhNS0_6ICMPv6EEESaIS3_EED1Ev W
_ZNSt12_Vector_baseIN4Tins9PDUOptionIhNS0_6ICMPv6EEESaIS3_EED2Ev W
_ZNSt12_Vector_baseIN4Tins9PDUOptionINS0_2IP17option_identifierES2_EESaIS4_EE11_M_allocateEm W
_ZNSt12_Vector_baseIN4Tins9PDUOptionINS0_2IP17option_identifierES2_EESaIS4_EE12_Vector_implC1ERKS5_ W
_ZNSt12_Vector_baseIN4Tins9PDUOptionINS0_2IP17option_identifierES2_EESaIS4_EE12_Vector_implC1Ev W
_ZNSt12_Vector_baseIN4Tins9PDUOptionINS0_2IP17option_identifierES2_EESaIS4_EE12_Vector_implC2ERKS5_ W
_ZNSt12_Vector_baseIN4Tins9PDUOptionINS0_2IP17option_identifierES2_EESaIS4_EE12_Vector_implC2Ev W
_ZNSt12_Vector_baseIN4Tins9PDUOptionINS0_2IP17option_identifierES2_EESaIS4_EE12_Vector_implD1Ev W
_ZNSt12_Vector_baseIN4Tins9PDUOptionINS0_2IP17option_identifierES2_EESaIS4_EE12_Vector_implD2Ev W
_ZNSt12_Vector_baseIN4Tins9PDUOptionINS0_2IP17option_identifierES2_EESaIS4_EE13_M_deallocateEPS4_m W
_ZNSt12_Vector_baseIN4Tins9PDUOptionINS0_2IP17option_identifierES2_EESaIS4_EE17_M_create_storageEm W
_ZNSt12_Vector_baseIN4Tins9PDUOptionINS0_2IP17option_identifierES2_EESaIS4_EE19_M_get_Tp_allocatorEv W
_ZNSt12_Vector_baseIN4Tins9PDUOptionINS0_2IP17option_identifierES2_EESaIS4_EEC1EmRKS5_ W
_ZNSt12_Vector_baseIN4Tins9PDUOptionINS0_2IP17option_identifierES2_EESaIS4_EEC1Ev W
_ZNSt12_Vector_baseIN4Tins9PDUOptionINS0_2IP17option_identifierES2_EESaIS4_EEC2EmRKS5_ W
_ZNSt12_Vector_baseIN4Tins9PDUOptionINS0_2IP17option_identifierES2_EESaIS4_EEC2Ev W
_ZNSt12_Vector_baseIN4Tins9PDUOptionINS0_2IP17option_identifierES2_EESaIS4_EED1Ev W
_ZNSt12_Vector_baseIN4Tins9PDUOptionINS0_2IP17option_identifierES2_EESaIS4_EED2Ev W
_ZNSt12_Vector_baseIN4Tins9PDUOptionINS0_5PPPoE8TagTypesES2_EESaIS4_EE11_M_allocateEm W
_ZNSt12_Vector_baseIN4Tins9PDUOptionINS0_5PPPoE8TagTypesES2_EESaIS4_EE12_Vector_implC1ERKS5_ W
_ZNSt12_Vector_baseIN4Tins9PDUOptionINS0_5PPPoE8TagTypesES2_EESaIS4_EE12_Vector_implC1Ev W
_ZNSt12_Vector_baseIN4Tins9PDUOptionINS0_5PPPoE8TagTypesES2_EESaIS4_EE12_Vector_implC2ERKS5_ W
_ZNSt12_Vector_baseIN4Tins9PDUOptionINS0_5PPPoE8TagTypesES2_EESaIS4_EE12_Vector_implC2Ev W
_ZNSt12_Vector_baseIN4Tins9PDUOptionINS0_5PPPoE8TagTypesES2_EESaIS4_EE12_Vector_implD1Ev W
_ZNSt12_Vector_baseIN4Tins9PDUOptionINS0_5PPPoE8TagTypesES2_EESaIS4_EE12_Vector_implD2Ev W
_ZNSt12_Vector_baseIN4Tins9PDUOptionINS0_5PPPoE8TagTypesES2_EESaIS4_EE13_M_deallocateEPS4_m W
_ZNSt12_Vector_baseIN4Tins9PDUOptionINS0_5PPPoE8TagTypesES2_EESaIS4_EE17_M_create_storageEm W
_ZNSt12_Vector_baseIN4Tins9PDUOptionINS0_5PPPoE8TagTypesES2_EESaIS4_EE19_M_get_Tp_allocatorEv W
_ZNSt12_Vector_baseIN4Tins9PDUOptionINS0_5PPPoE8TagTypesES2_EESaIS4_EEC1EmRKS5_ W
_ZNSt12_Vector_baseIN4Tins9PDUOptionINS0_5PPPoE8TagTypesES2_EESaIS4_EEC1Ev W
_ZNSt12_Vector_baseIN4Tins9PDUOptionINS0_5PPPoE8TagTypesES2_EESaIS4_EEC2EmRKS5_ W
_ZNSt12_Vector_baseIN4Tins9PDUOptionINS0_5PPPoE8TagTypesES2_EESaIS4_EEC2Ev W
_ZNSt12_Vector_baseIN4Tins9PDUOptionINS0_5PPPoE8TagTypesES2_EESaIS4_EED1Ev W
_ZNSt12_Vector_baseIN4Tins9PDUOptionINS0_5PPPoE8TagTypesES2_EESaIS4_EED2Ev W
_ZNSt12_Vector_baseIN4Tins9PDUOptionItNS0_6DHCPv6EEESaIS3_EE11_M_allocateEm W
_ZNSt12_Vector_baseIN4Tins9PDUOptionItNS0_6DHCPv6EEESaIS3_EE12_Vector_implC1ERKS4_ W
_ZNSt12_Vector_baseIN4Tins9PDUOptionItNS0_6DHCPv6EEESaIS3_EE12_Vector_implC1Ev W
_ZNSt12_Vector_baseIN4Tins9PDUOptionItNS0_6DHCPv6EEESaIS3_EE12_Vector_implC2ERKS4_ W
_ZNSt12_Vector_baseIN4Tins9PDUOptionItNS0_6DHCPv6EEESaIS3_EE12_Vector_implC2Ev W
_ZNSt12_Vector_baseIN4Tins9PDUOptionItNS0_6DHCPv6EEESaIS3_EE12_Vector_implD1Ev W
_ZNSt12_Vector_baseIN4Tins9PDUOptionItNS0_6DHCPv6EEESaIS3_EE12_Vector_implD2Ev W
_ZNSt12_Vector_baseIN4Tins9PDUOptionItNS0_6DHCPv6EEESaIS3_EE13_M_deallocateEPS3_m W
_ZNSt12_Vector_baseIN4Tins9PDUOptionItNS0_6DHCPv6EEESaIS3_EE17_M_create_storageEm W
_ZNSt12_Vector_baseIN4Tins9PDUOptionItNS0_6DHCPv6EEESaIS3_EE19_M_get_Tp_allocatorEv W
_ZNSt12_Vector_baseIN4Tins9PDUOptionItNS0_6DHCPv6EEESaIS3_EEC1EmRKS4_ W
_ZNSt12_Vector_baseIN4Tins9PDUOptionItNS0_6DHCPv6EEESaIS3_EEC1Ev W
_ZNSt12_Vector_baseIN4Tins9PDUOptionItNS0_6DHCPv6EEESaIS3_EEC2EmRKS4_ W
_ZNSt12_Vector_baseIN4Tins9PDUOptionItNS0_6DHCPv6EEESaIS3_EEC2Ev W
_ZNSt12_Vector_baseIN4Tins9PDUOptionItNS0_6DHCPv6EEESaIS3_EED1Ev W
_ZNSt12_Vector_baseIN4Tins9PDUOptionItNS0_6DHCPv6EEESaIS3_EED2Ev W
_ZNSt12_Vector_baseISsSaISsEE11_M_allocateEm W
_ZNSt12_Vector_baseISsSaISsEE12_Vector_implC1ERKS0_ W
_ZNSt12_Vector_baseISsSaISsEE12_Vector_implC1Ev W
_ZNSt12_Vector_baseISsSaISsEE12_Vector_implC2ERKS0_ W
_ZNSt12_Vector_baseISsSaISsEE12_Vector_implC2Ev W
_ZNSt12_Vector_baseISsSaISsEE12_Vector_implD1Ev W
_ZNSt12_Vector_baseISsSaISsEE12_Vector_implD2Ev W
_ZNSt12_Vector_baseISsSaISsEE13_M_deallocateEPSsm W
_ZNSt12_Vector_baseISsSaISsEE17_M_create_storageEm W
_ZNSt12_Vector_baseISsSaISsEE19_M_get_Tp_allocatorEv W
_ZNSt12_Vector_baseISsSaISsEEC1EmRKS0_ W
_ZNSt12_Vector_baseISsSaISsEEC1Ev W
_ZNSt12_Vector_baseISsSaISsEEC2EmRKS0_ W
_ZNSt12_Vector_baseISsSaISsEEC2Ev W
_ZNSt12_Vector_baseISsSaISsEED1Ev W
_ZNSt12_Vector_baseISsSaISsEED2Ev W
_ZNSt12_Vector_baseISt4pairIhhESaIS1_EE11_M_allocateEm W
_ZNSt12_Vector_baseISt4pairIhhESaIS1_EE12_Vector_implC1Ev W
_ZNSt12_Vector_baseISt4pairIhhESaIS1_EE12_Vector_implC2Ev W
_ZNSt12_Vector_baseISt4pairIhhESaIS1_EE12_Vector_implD1Ev W
_ZNSt12_Vector_baseISt4pairIhhESaIS1_EE12_Vector_implD2Ev W
_ZNSt12_Vector_baseISt4pairIhhESaIS1_EE13_M_deallocateEPS1_m W
_ZNSt12_Vector_baseISt4pairIhhESaIS1_EE19_M_get_Tp_allocatorEv W
_ZNSt12_Vector_baseISt4pairIhhESaIS1_EEC1Ev W
_ZNSt12_Vector_baseISt4pairIhhESaIS1_EEC2Ev W
_ZNSt12_Vector_baseISt4pairIhhESaIS1_EED1Ev W
_ZNSt12_Vector_baseISt4pairIhhESaIS1_EED2Ev W
_ZNSt12_Vector_baseISt4pairIhSt6vectorIhSaIhEEESaIS4_EE11_M_allocateEm W
_ZNSt12_Vector_baseISt4pairIhSt6vectorIhSaIhEEESaIS4_EE12_Vector_implC1Ev W
_ZNSt12_Vector_baseISt4pairIhSt6vectorIhSaIhEEESaIS4_EE12_Vector_implC2Ev W
_ZNSt12_Vector_baseISt4pairIhSt6vectorIhSaIhEEESaIS4_EE12_Vector_implD1Ev W
_ZNSt12_Vector_baseISt4pairIhSt6vectorIhSaIhEEESaIS4_EE12_Vector_implD2Ev W
_ZNSt12_Vector_baseISt4pairIhSt6vectorIhSaIhEEESaIS4_EE13_M_deallocateEPS4_m W
_ZNSt12_Vector_baseISt4pairIhSt6vectorIhSaIhEEESaIS4_EE19_M_get_Tp_allocatorEv W
_ZNSt12_Vector_baseISt4pairIhSt6vectorIhSaIhEEESaIS4_EEC1Ev W
_ZNSt12_Vector_baseISt4pairIhSt6vectorIhSaIhEEESaIS4_EEC2Ev W
_ZNSt12_Vector_baseISt4pairIhSt6vectorIhSaIhEEESaIS4_EED1Ev W
_ZNSt12_Vector_baseISt4pairIhSt6vectorIhSaIhEEESaIS4_EED2Ev W
_ZNSt12_Vector_baseISt4pairIPjjESaIS2_EE11_M_allocateEm W
_ZNSt12_Vector_baseISt4pairIPjjESaIS2_EE12_Vector_implC1Ev W
_ZNSt12_Vector_baseISt4pairIPjjESaIS2_EE12_Vector_implC2Ev W
_ZNSt12_Vector_baseISt4pairIPjjESaIS2_EE12_Vector_implD1Ev W
_ZNSt12_Vector_baseISt4pairIPjjESaIS2_EE12_Vector_implD2Ev W
_ZNSt12_Vector_baseISt4pairIPjjESaIS2_EE13_M_deallocateEPS2_m W
_ZNSt12_Vector_baseISt4pairIPjjESaIS2_EE19_M_get_Tp_allocatorEv W
_ZNSt12_Vector_baseISt4pairIPjjESaIS2_EEC1Ev W
_ZNSt12_Vector_baseISt4pairIPjjESaIS2_EEC2Ev W
_ZNSt12_Vector_baseISt4pairIPjjESaIS2_EED1Ev W
_ZNSt12_Vector_baseISt4pairIPjjESaIS2_EED2Ev W
_ZNSt12_Vector_baseISt6vectorIhSaIhEESaIS2_EE11_M_allocateEm W
_ZNSt12_Vector_baseISt6vectorIhSaIhEESaIS2_EE12_Vector_implC1ERKS3_ W
_ZNSt12_Vector_baseISt6vectorIhSaIhEESaIS2_EE12_Vector_implC1Ev W
_ZNSt12_Vector_baseISt6vectorIhSaIhEESaIS2_EE12_Vector_implC2ERKS3_ W
_ZNSt12_Vector_baseISt6vectorIhSaIhEESaIS2_EE12_Vector_implC2Ev W
_ZNSt12_Vector_baseISt6vectorIhSaIhEESaIS2_EE12_Vector_implD1Ev W
_ZNSt12_Vector_baseISt6vectorIhSaIhEESaIS2_EE12_Vector_implD2Ev W
_ZNSt12_Vector_baseISt6vectorIhSaIhEESaIS2_EE13_M_deallocateEPS2_m W
_ZNSt12_Vector_baseISt6vectorIhSaIhEESaIS2_EE17_M_create_storageEm W
_ZNSt12_Vector_baseISt6vectorIhSaIhEESaIS2_EE19_M_get_Tp_allocatorEv W
_ZNSt12_Vector_baseISt6vectorIhSaIhEESaIS2_EEC1EmRKS3_ W
_ZNSt12_Vector_baseISt6vectorIhSaIhEESaIS2_EEC1Ev W
_ZNSt12_Vector_baseISt6vectorIhSaIhEESaIS2_EEC2EmRKS3_ W
_ZNSt12_Vector_baseISt6vectorIhSaIhEESaIS2_EEC2Ev W
_ZNSt12_Vector_baseISt6vectorIhSaIhEESaIS2_EED1Ev W
_ZNSt12_Vector_baseISt6vectorIhSaIhEESaIS2_EED2Ev W
_ZNSt12_Vector_baseItSaItEE11_M_allocateEm W
_ZNSt12_Vector_baseItSaItEE12_Vector_implC1ERKS0_ W
_ZNSt12_Vector_baseItSaItEE12_Vector_implC2ERKS0_ W
_ZNSt12_Vector_baseItSaItEE12_Vector_implD1Ev W
_ZNSt12_Vector_baseItSaItEE12_Vector_implD2Ev W
_ZNSt12_Vector_baseItSaItEE13_M_deallocateEPtm W
_ZNSt12_Vector_baseItSaItEE17_M_create_storageEm W
_ZNSt12_Vector_baseItSaItEE19_M_get_Tp_allocatorEv W
_ZNSt12_Vector_baseItSaItEEC1EmRKS0_ W
_ZNSt12_Vector_baseItSaItEEC2EmRKS0_ W
_ZNSt12_Vector_baseItSaItEED1Ev W
_ZNSt12_Vector_baseItSaItEED2Ev W
_ZNSt17_Rb_tree_iteratorISsEC1EPSt13_Rb_tree_nodeISsE W
_ZNSt17_Rb_tree_iteratorISsEC2EPSt13_Rb_tree_nodeISsE W
_ZNSt17_Rb_tree_iteratorISsEmmEv W
_ZNSt17_Rb_tree_iteratorISt4pairIKhPFPN4Tins3PDUEPS1_jEEEC1EPSt13_Rb_tree_nodeIS8_E W
_ZNSt17_Rb_tree_iteratorISt4pairIKhPFPN4Tins3PDUEPS1_jEEEC2EPSt13_Rb_tree_nodeIS8_E W
_ZNSt17_Rb_tree_iteratorISt4pairIKN4Tins12PacketSender10SocketTypeEiEEC1EPSt13_Rb_tree_nodeIS5_E W
_ZNSt17_Rb_tree_iteratorISt4pairIKN4Tins12PacketSender10SocketTypeEiEEC2EPSt13_Rb_tree_nodeIS5_E W
_ZNSt17_Rb_tree_iteratorISt4pairIKN4Tins12PacketSender10SocketTypeEiEEmmEv W
_ZNSt17_Rb_tree_iteratorISt4pairIKN4Tins12PacketSender10SocketTypeEiEEppEv W
_ZNSt17_Rb_tree_iteratorISt4pairIKN4Tins3PDU7PDUTypeEhEEC1EPSt13_Rb_tree_nodeIS5_E W
_ZNSt17_Rb_tree_iteratorISt4pairIKN4Tins3PDU7PDUTypeEhEEC2EPSt13_Rb_tree_nodeIS5_E W
_ZNSt17_Rb_tree_iteratorISt4pairIKN4Tins3PDU7PDUTypeEtEEC1EPSt13_Rb_tree_nodeIS5_E W
_ZNSt17_Rb_tree_iteratorISt4pairIKN4Tins3PDU7PDUTypeEtEEC2EPSt13_Rb_tree_nodeIS5_E W
_ZNSt17_Rb_tree_iteratorISt4pairIKS0_ItS0_IN4Tins11IPv4AddressES2_EENS1_9Internals10IPv4StreamEEEC1EPSt13_Rb_tree_nodeIS8_E W
_ZNSt17_Rb_tree_iteratorISt4pairIKS0_ItS0_IN4Tins11IPv4AddressES2_EENS1_9Internals10IPv4StreamEEEC2EPSt13_Rb_tree_nodeIS8_E W
_ZNSt17_Rb_tree_iteratorISt4pairIKS0_ItS0_IN4Tins11IPv4AddressES2_EENS1_9Internals10IPv4StreamEEEmmEv W
_ZNSt17_Rb_tree_iteratorISt4pairIKS0_ItS0_IN4Tins11IPv4AddressES2_EENS1_9Internals10IPv4StreamEEEppEv W
_ZNSt17_Rb_tree_iteratorISt4pairIKtPFPN4Tins3PDUEPKhjEEEC1EPSt13_Rb_tree_nodeIS9_E W
_ZNSt17_Rb_tree_iteratorISt4pairIKtPFPN4Tins3PDUEPKhjEEEC2EPSt13_Rb_tree_nodeIS9_E W
_ZNSt20back_insert_iteratorISt6vectorIN4Tins5Utils10RouteEntryESaIS3_EEEaSERKS3_ W
_ZNSt20back_insert_iteratorISt6vectorIN4Tins5Utils10RouteEntryESaIS3_EEEC1ERS5_ W
_ZNSt20back_insert_iteratorISt6vectorIN4Tins5Utils10RouteEntryESaIS3_EEEC2ERS5_ W
_ZNSt20back_insert_iteratorISt6vectorIN4Tins5Utils10RouteEntryESaIS3_EEEdeEv W
_ZNSt20back_insert_iteratorISt6vectorIN4Tins5Utils10RouteEntryESaIS3_EEEppEv W
_ZNSt20back_insert_iteratorISt6vectorIN4Tins5Utils11Route6EntryESaIS3_EEEaSERKS3_ W
_ZNSt20back_insert_iteratorISt6vectorIN4Tins5Utils11Route6EntryESaIS3_EEEC1ERS5_ W
_ZNSt20back_insert_iteratorISt6vectorIN4Tins5Utils11Route6EntryESaIS3_EEEC2ERS5_ W
_ZNSt20back_insert_iteratorISt6vectorIN4Tins5Utils11Route6EntryESaIS3_EEEdeEv W
_ZNSt20back_insert_iteratorISt6vectorIN4Tins5Utils11Route6EntryESaIS3_EEEppEv W
_ZNSt20__copy_move_backwardILb0ELb0ESt26random_access_iterator_tagE13__copy_move_bIPN4Tins11IPv4AddressES5_EET0_T_S7_S6_ W
_ZNSt20__copy_move_backwardILb0ELb0ESt26random_access_iterator_tagE13__copy_move_bIPN4Tins11IPv6AddressES5_EET0_T_S7_S6_ W
_ZNSt20__copy_move_backwardILb0ELb0ESt26random_access_iterator_tagE13__copy_move_bIPN4Tins13ICMPExtensionES5_EET0_T_S7_S6_ W
_ZNSt20__copy_move_backwardILb0ELb0ESt26random_access_iterator_tagE13__copy_move_bIPN4Tins16NetworkInterface10IPv6PrefixES6_EET0_T_S8_S7_ W
_ZNSt20__copy_move_backwardILb0ELb0ESt26random_access_iterator_tagE13__copy_move_bIPN4Tins16NetworkInterfaceES5_EET0_T_S7_S6_ W
_ZNSt20__copy_move_backwardILb0ELb0ESt26random_access_iterator_tagE13__copy_move_bIPN4Tins3DNS5queryES6_EET0_T_S8_S7_ W
_ZNSt20__copy_move_backwardILb0ELb0ESt26random_access_iterator_tagE13__copy_move_bIPN4Tins3DNS8resourceES6_EET0_T_S8_S7_ W
_ZNSt20__copy_move_backwardILb0ELb0ESt26random_access_iterator_tagE13__copy_move_bIPN4Tins5Utils10RouteEntryES6_EET0_T_S8_S7_ W
_ZNSt20__copy_move_backwardILb0ELb0ESt26random_access_iterator_tagE13__copy_move_bIPN4Tins5Utils11Route6EntryES6_EET0_T_S8_S7_ W
_ZNSt20__copy_move_backwardILb0ELb0ESt26random_access_iterator_tagE13__copy_move_bIPN4Tins6ICMPv624multicast_address_recordES6_EET0_T_S8_S7_ W
_ZNSt20__copy_move_backwardILb0ELb0ESt26random_access_iterator_tagE13__copy_move_bIPN4Tins9Internals12IPv4FragmentES6_EET0_T_S8_S7_ W
_ZNSt20__copy_move_backwardILb0ELb0ESt26random_access_iterator_tagE13__copy_move_bIPN4Tins9PDUOptionIhNS3_3TCPEEES7_EET0_T_S9_S8_ W
_ZNSt20__copy_move_backwardILb0ELb0ESt26random_access_iterator_tagE13__copy_move_bIPN4Tins9PDUOptionIhNS3_4DHCPEEES7_EET0_T_S9_S8_ W
_ZNSt20__copy_move_backwardILb0ELb0ESt26random_access_iterator_tagE13__copy_move_bIPN4Tins9PDUOptionIhNS3_4IPv6EEES7_EET0_T_S9_S8_ W
_ZNSt20__copy_move_backwardILb0ELb0ESt26random_access_iterator_tagE13__copy_move_bIPN4Tins9PDUOptionIhNS3_6ICMPv6EEES7_EET0_T_S9_S8_ W
_ZNSt20__copy_move_backwardILb0ELb0ESt26random_access_iterator_tagE13__copy_move_bIPN4Tins9PDUOptionINS3_2IP17option_identifierES5_EES8_EET0_T_SA_S9_ W
_ZNSt20__copy_move_backwardILb0ELb0ESt26random_access_iterator_tagE13__copy_move_bIPN4Tins9PDUOptionINS3_5PPPoE8TagTypesES5_EES8_EET0_T_SA_S9_ W
_ZNSt20__copy_move_backwardILb0ELb0ESt26random_access_iterator_tagE13__copy_move_bIPN4Tins9PDUOptionItNS3_6DHCPv6EEES7_EET0_T_S9_S8_ W
_ZNSt20__copy_move_backwardILb0ELb0ESt26random_access_iterator_tagE13__copy_move_bIPSsS3_EET0_T_S5_S4_ W
_ZNSt20__copy_move_backwardILb0ELb0ESt26random_access_iterator_tagE13__copy_move_bIPSt4pairIhhES5_EET0_T_S7_S6_ W
_ZNSt20__copy_move_backwardILb0ELb0ESt26random_access_iterator_tagE13__copy_move_bIPSt4pairIhSt6vectorIhSaIhEEES8_EET0_T_SA_S9_ W
_ZNSt20__copy_move_backwardILb0ELb0ESt26random_access_iterator_tagE13__copy_move_bIPSt4pairIPjjES6_EET0_T_S8_S7_ W
_ZNSt20__copy_move_backwardILb0ELb0ESt26random_access_iterator_tagE13__copy_move_bIPSt6vectorIhSaIhEES6_EET0_T_S8_S7_ W
_ZNSt20__copy_move_backwardILb0ELb1ESt26random_access_iterator_tagE13__copy_move_bIfEEPT_PKS3_S6_S4_ W
_ZNSt20__copy_move_backwardILb0ELb1ESt26random_access_iterator_tagE13__copy_move_bIhEEPT_PKS3_S6_S4_ W
_ZNSt20__copy_move_backwardILb0ELb1ESt26random_access_iterator_tagE13__copy_move_bIiEEPT_PKS3_S6_S4_ W
_ZNSt20__uninitialized_copyILb0EE13__uninit_copyIN9__gnu_cxx17__normal_iteratorIPKN4Tins11IPv4AddressESt6vectorIS5_SaIS5_EEEEPS5_EET0_T_SE_SD_ W
_ZNSt20__uninitialized_copyILb0EE13__uninit_copyIN9__gnu_cxx17__normal_iteratorIPKN4Tins11IPv6AddressESt6vectorIS5_SaIS5_EEEEPS5_EET0_T_SE_SD_ W
_ZNSt20__uninitialized_copyILb0EE13__uninit_copyIN9__gnu_cxx17__normal_iteratorIPKN4Tins13ICMPExtensionESt6vectorIS5_SaIS5_EEEEPS5_EET0_T_SE_SD_ W
_ZNSt20__uninitialized_copyILb0EE13__uninit_copyIN9__gnu_cxx17__normal_iteratorIPKN4Tins16NetworkInterface10IPv6PrefixESt6vectorIS6_SaIS6_EEEEPS6_EET0_T_SF_SE_ W
_ZNSt20__uninitialized_copyILb0EE13__uninit_copyIN9__gnu_cxx17__normal_iteratorIPKN4Tins6ICMPv624multicast_address_recordESt6vectorIS6_SaIS6_EEEEPS6_EET0_T_SF_SE_ W
_ZNSt20__uninitialized_copyILb0EE13__uninit_copyIN9__gnu_cxx17__normal_iteratorIPKN4Tins9Internals12IPv4FragmentESt6vectorIS6_SaIS6_EEEEPS6_EET0_T_SF_SE_ W
_ZNSt20__uninitialized_copyILb0EE13__uninit_copyIN9__gnu_cxx17__normal_iteratorIPKN4Tins9PDUOptionIhNS4_3TCPEEESt6vectorIS7_SaIS7_EEEEPS7_EET0_T_SG_SF_ W
_ZNSt20__uninitialized_copyILb0EE13__uninit_copyIN9__gnu_cxx17__normal_iteratorIPKN4Tins9PDUOptionIhNS4_4DHCPEEESt6vectorIS7_SaIS7_EEEEPS7_EET0_T_SG_SF_ W
_ZNSt20__uninitialized_copyILb0EE13__uninit_copyIN9__gnu_cxx17__normal_iteratorIPKN4Tins9PDUOptionIhNS4_4IPv6EEESt6vectorIS7_SaIS7_EEEEPS7_EET0_T_SG_SF_ W
_ZNSt20__uninitialized_copyILb0EE13__uninit_copyIN9__gnu_cxx17__normal_iteratorIPKN4Tins9PDUOptionIhNS4_6ICMPv6EEESt6vectorIS7_SaIS7_EEEEPS7_EET0_T_SG_SF_ W
_ZNSt20__uninitialized_copyILb0EE13__uninit_copyIN9__gnu_cxx17__normal_iteratorIPKN4Tins9PDUOptionINS4_2IP17option_identifierES6_EESt6vectorIS8_SaIS8_EEEEPS8_EET0_T_SH_SG_ W
_ZNSt20__uninitialized_copyILb0EE13__uninit_copyIN9__gnu_cxx17__normal_iteratorIPKN4Tins9PDUOptionINS4_5PPPoE8TagTypesES6_EESt6vectorIS8_SaIS8_EEEEPS8_EET0_T_SH_SG_ W
_ZNSt20__uninitialized_copyILb0EE13__uninit_copyIN9__gnu_cxx17__normal_iteratorIPKN4Tins9PDUOptionItNS4_6DHCPv6EEESt6vectorIS7_SaIS7_EEEEPS7_EET0_T_SG_SF_ W
_ZNSt20__uninitialized_copyILb0EE13__uninit_copyIN9__gnu_cxx17__normal_iteratorIPKSsSt6vectorISsSaISsEEEEPSsEET0_T_SC_SB_ W
_ZNSt20__uninitialized_copyILb0EE13__uninit_copyIN9__gnu_cxx17__normal_iteratorIPKSt4pairIhSt6vectorIhSaIhEEES5_IS8_SaIS8_EEEEPS8_EET0_T_SG_SF_ W
_ZNSt20__uninitialized_copyILb0EE13__uninit_copyIN9__gnu_cxx17__normal_iteratorIPKSt6vectorIhSaIhEES4_IS6_SaIS6_EEEEPS6_EET0_T_SE_SD_ W
_ZNSt20__uninitialized_copyILb0EE13__uninit_copyIPN4Tins11IPv4AddressES4_EET0_T_S6_S5_ W
_ZNSt20__uninitialized_copyILb0EE13__uninit_copyIPN4Tins11IPv6AddressES4_EET0_T_S6_S5_ W
_ZNSt20__uninitialized_copyILb0EE13__uninit_copyIPN4Tins13ICMPExtensionES4_EET0_T_S6_S5_ W
_ZNSt20__uninitialized_copyILb0EE13__uninit_copyIPN4Tins16NetworkInterface10IPv6PrefixES5_EET0_T_S7_S6_ W
_ZNSt20__uninitialized_copyILb0EE13__uninit_copyIPN4Tins16NetworkInterfaceES4_EET0_T_S6_S5_ W
_ZNSt20__uninitialized_copyILb0EE13__uninit_copyIPN4Tins3DNS5queryES5_EET0_T_S7_S6_ W
_ZNSt20__uninitialized_copyILb0EE13__uninit_copyIPN4Tins3DNS8resourceES5_EET0_T_S7_S6_ W
_ZNSt20__uninitialized_copyILb0EE13__uninit_copyIPN4Tins5Utils10RouteEntryES5_EET0_T_S7_S6_ W
_ZNSt20__uninitialized_copyILb0EE13__uninit_copyIPN4Tins5Utils11Route6EntryES5_EET0_T_S7_S6_ W
_ZNSt20__uninitialized_copyILb0EE13__uninit_copyIPN4Tins6ICMPv624multicast_address_recordES5_EET0_T_S7_S6_ W
_ZNSt20__uninitialized_copyILb0EE13__uninit_copyIPN4Tins9Internals12IPv4FragmentES5_EET0_T_S7_S6_ W
_ZNSt20__uninitialized_copyILb0EE13__uninit_copyIPN4Tins9PDUOptionIhNS2_3TCPEEES6_EET0_T_S8_S7_ W
_ZNSt20__uninitialized_copyILb0EE13__uninit_copyIPN4Tins9PDUOptionIhNS2_4DHCPEEES6_EET0_T_S8_S7_ W
_ZNSt20__uninitialized_copyILb0EE13__uninit_copyIPN4Tins9PDUOptionIhNS2_4IPv6EEES6_EET0_T_S8_S7_ W
_ZNSt20__uninitialized_copyILb0EE13__uninit_copyIPN4Tins9PDUOptionIhNS2_6ICMPv6EEES6_EET0_T_S8_S7_ W
_ZNSt20__uninitialized_copyILb0EE13__uninit_copyIPN4Tins9PDUOptionINS2_2IP17option_identifierES4_EES7_EET0_T_S9_S8_ W
_ZNSt20__uninitialized_copyILb0EE13__uninit_copyIPN4Tins9PDUOptionINS2_5PPPoE8TagTypesES4_EES7_EET0_T_S9_S8_ W
_ZNSt20__uninitialized_copyILb0EE13__uninit_copyIPN4Tins9PDUOptionItNS2_6DHCPv6EEES6_EET0_T_S8_S7_ W
_ZNSt20__uninitialized_copyILb0EE13__uninit_copyIPSsS2_EET0_T_S4_S3_ W
_ZNSt20__uninitialized_copyILb0EE13__uninit_copyIPSt4pairIhhES4_EET0_T_S6_S5_ W
_ZNSt20__uninitialized_copyILb0EE13__uninit_copyIPSt4pairIhSt6vectorIhSaIhEEES7_EET0_T_S9_S8_ W
_ZNSt20__uninitialized_copyILb0EE13__uninit_copyIPSt4pairIPjjES5_EET0_T_S7_S6_ W
_ZNSt20__uninitialized_copyILb0EE13__uninit_copyIPSt6vectorIhSaIhEES5_EET0_T_S7_S6_ W
_ZNSt20__uninitialized_copyILb1EE13__uninit_copyIN9__gnu_cxx17__normal_iteratorIPcSsEEPhEET0_T_S8_S7_ W
_ZNSt20__uninitialized_copyILb1EE13__uninit_copyIN9__gnu_cxx17__normal_iteratorIPKcSsEEPhEET0_T_S9_S8_ W
_ZNSt20__uninitialized_copyILb1EE13__uninit_copyIN9__gnu_cxx17__normal_iteratorIPKhSt6vectorIhSaIhEEEEPhEET0_T_SC_SB_ W
_ZNSt20__uninitialized_copyILb1EE13__uninit_copyIPfS2_EET0_T_S4_S3_ W
_ZNSt20__uninitialized_copyILb1EE13__uninit_copyIPhS2_EET0_T_S4_S3_ W
_ZNSt20__uninitialized_copyILb1EE13__uninit_copyIPiS2_EET0_T_S4_S3_ W
_ZNSt20__uninitialized_copyILb1EE13__uninit_copyIPKhPhEET0_T_S6_S5_ W
_ZNSt22__uninitialized_fill_nILb0EE15__uninit_fill_nIPN4Tins11IPv4AddressEmS3_EEvT_T0_RKT1_ W
_ZNSt22__uninitialized_fill_nILb1EE15__uninit_fill_nIPhmhEEvT_T0_RKT1_ W
_ZNSt22__uninitialized_fill_nILb1EE15__uninit_fill_nIPimiEEvT_T0_RKT1_ W
_ZNSt22__uninitialized_fill_nILb1EE15__uninit_fill_nIPjmjEEvT_T0_RKT1_ W
_ZNSt22__uninitialized_fill_nILb1EE15__uninit_fill_nIPtmtEEvT_T0_RKT1_ W
_ZNSt23_Rb_tree_const_iteratorISsEC1EPKSt13_Rb_tree_nodeISsE W
_ZNSt23_Rb_tree_const_iteratorISsEC1ERKSt17_Rb_tree_iteratorISsE W
_ZNSt23_Rb_tree_const_iteratorISsEC2EPKSt13_Rb_tree_nodeISsE W
_ZNSt23_Rb_tree_const_iteratorISsEC2ERKSt17_Rb_tree_iteratorISsE W
_ZNSt23_Rb_tree_const_iteratorISsEppEv W
_ZNSt23_Rb_tree_const_iteratorISt4pairIKhPFPN4Tins3PDUEPS1_jEEEC1ERKSt17_Rb_tree_iteratorIS8_E W
_ZNSt23_Rb_tree_const_iteratorISt4pairIKhPFPN4Tins3PDUEPS1_jEEEC2ERKSt17_Rb_tree_iteratorIS8_E W
_ZNSt23_Rb_tree_const_iteratorISt4pairIKN4Tins12PacketSender10SocketTypeEiEEC1ERKSt17_Rb_tree_iteratorIS5_E W
_ZNSt23_Rb_tree_const_iteratorISt4pairIKN4Tins12PacketSender10SocketTypeEiEEC2ERKSt17_Rb_tree_iteratorIS5_E W
_ZNSt23_Rb_tree_const_iteratorISt4pairIKN4Tins3PDU7PDUTypeEhEEC1EPKSt13_Rb_tree_nodeIS5_E W
_ZNSt23_Rb_tree_const_iteratorISt4pairIKN4Tins3PDU7PDUTypeEhEEC1ERKSt17_Rb_tree_iteratorIS5_E W
_ZNSt23_Rb_tree_const_iteratorISt4pairIKN4Tins3PDU7PDUTypeEhEEC2EPKSt13_Rb_tree_nodeIS5_E W
_ZNSt23_Rb_tree_const_iteratorISt4pairIKN4Tins3PDU7PDUTypeEhEEC2ERKSt17_Rb_tree_iteratorIS5_E W
_ZNSt23_Rb_tree_const_iteratorISt4pairIKN4Tins3PDU7PDUTypeEtEEC1EPKSt13_Rb_tree_nodeIS5_E W
_ZNSt23_Rb_tree_const_iteratorISt4pairIKN4Tins3PDU7PDUTypeEtEEC1ERKSt17_Rb_tree_iteratorIS5_E W
_ZNSt23_Rb_tree_const_iteratorISt4pairIKN4Tins3PDU7PDUTypeEtEEC2EPKSt13_Rb_tree_nodeIS5_E W
_ZNSt23_Rb_tree_const_iteratorISt4pairIKN4Tins3PDU7PDUTypeEtEEC2ERKSt17_Rb_tree_iteratorIS5_E W
_ZNSt23_Rb_tree_const_iteratorISt4pairIKS0_ItS0_IN4Tins11IPv4AddressES2_EENS1_9Internals10IPv4StreamEEEC1ERKSt17_Rb_tree_iteratorIS8_E W
_ZNSt23_Rb_tree_const_iteratorISt4pairIKS0_ItS0_IN4Tins11IPv4AddressES2_EENS1_9Internals10IPv4StreamEEEC2ERKSt17_Rb_tree_iteratorIS8_E W
_ZNSt23_Rb_tree_const_iteratorISt4pairIKS0_ItS0_IN4Tins11IPv4AddressES2_EENS1_9Internals10IPv4StreamEEEppEi W
_ZNSt23_Rb_tree_const_iteratorISt4pairIKtPFPN4Tins3PDUEPKhjEEEC1ERKSt17_Rb_tree_iteratorIS9_E W
_ZNSt23_Rb_tree_const_iteratorISt4pairIKtPFPN4Tins3PDUEPKhjEEEC2ERKSt17_Rb_tree_iteratorIS9_E W
_ZNSt25__lexicographical_compareILb1EE4__lcIhhEEbPKT_S4_PKT0_S7_ W
_ZNSt3mapIhPFPN4Tins3PDUEPKhjESt4lessIhESaISt4pairIS3_S6_EEE3endEv W
_ZNSt3mapIhPFPN4Tins3PDUEPKhjESt4lessIhESaISt4pairIS3_S6_EEE4findERS3_ W
_ZNSt3mapIhPFPN4Tins3PDUEPKhjESt4lessIhESaISt4pairIS3_S6_EEEC1Ev W
_ZNSt3mapIhPFPN4Tins3PDUEPKhjESt4lessIhESaISt4pairIS3_S6_EEEC2Ev W
_ZNSt3mapIhPFPN4Tins3PDUEPKhjESt4lessIhESaISt4pairIS3_S6_EEED1Ev W
_ZNSt3mapIhPFPN4Tins3PDUEPKhjESt4lessIhESaISt4pairIS3_S6_EEED2Ev W
_ZNSt3mapIN4Tins12PacketSender10SocketTypeEiSt4lessIS2_ESaISt4pairIKS2_iEEE11lower_boundERS6_ W
_ZNSt3mapIN4Tins12PacketSender10SocketTypeEiSt4lessIS2_ESaISt4pairIKS2_iEEE3endEv W
_ZNSt3mapIN4Tins12PacketSender10SocketTypeEiSt4lessIS2_ESaISt4pairIKS2_iEEE4findERS6_ W
_ZNSt3mapIN4Tins12PacketSender10SocketTypeEiSt4lessIS2_ESaISt4pairIKS2_iEEE6insertESt17_Rb_tree_iteratorIS7_ERKS7_ W
_ZNSt3mapIN4Tins12PacketSender10SocketTypeEiSt4lessIS2_ESaISt4pairIKS2_iEEEC1Ev W
_ZNSt3mapIN4Tins12PacketSender10SocketTypeEiSt4lessIS2_ESaISt4pairIKS2_iEEEC2Ev W
_ZNSt3mapIN4Tins12PacketSender10SocketTypeEiSt4lessIS2_ESaISt4pairIKS2_iEEED1Ev W
_ZNSt3mapIN4Tins12PacketSender10SocketTypeEiSt4lessIS2_ESaISt4pairIKS2_iEEED2Ev W
_ZNSt3mapIN4Tins12PacketSender10SocketTypeEiSt4lessIS2_ESaISt4pairIKS2_iEEEixERS6_ W
_ZNSt3mapIN4Tins3PDU7PDUTypeEhSt4lessIS2_ESaISt4pairIKS2_hEEE4findERS6_ W
_ZNSt3mapIN4Tins3PDU7PDUTypeEhSt4lessIS2_ESaISt4pairIKS2_hEEEC1Ev W
_ZNSt3mapIN4Tins3PDU7PDUTypeEhSt4lessIS2_ESaISt4pairIKS2_hEEEC2Ev W
_ZNSt3mapIN4Tins3PDU7PDUTypeEhSt4lessIS2_ESaISt4pairIKS2_hEEED1Ev W
_ZNSt3mapIN4Tins3PDU7PDUTypeEhSt4lessIS2_ESaISt4pairIKS2_hEEED2Ev W
_ZNSt3mapIN4Tins3PDU7PDUTypeEtSt4lessIS2_ESaISt4pairIKS2_tEEE4findERS6_ W
_ZNSt3mapIN4Tins3PDU7PDUTypeEtSt4lessIS2_ESaISt4pairIKS2_tEEEC1Ev W
_ZNSt3mapIN4Tins3PDU7PDUTypeEtSt4lessIS2_ESaISt4pairIKS2_tEEEC2Ev W
_ZNSt3mapIN4Tins3PDU7PDUTypeEtSt4lessIS2_ESaISt4pairIKS2_tEEED1Ev W
_ZNSt3mapIN4Tins3PDU7PDUTypeEtSt4lessIS2_ESaISt4pairIKS2_tEEED2Ev W
_ZNSt3mapISt4pairItS0_IN4Tins11IPv4AddressES2_EENS1_9Internals10IPv4StreamESt4lessIS4_ESaIS0_IKS4_S6_EEE11lower_boundERS9_ W
_ZNSt3mapISt4pairItS0_IN4Tins11IPv4AddressES2_EENS1_9Internals10IPv4StreamESt4lessIS4_ESaIS0_IKS4_S6_EEE3endEv W
_ZNSt3mapISt4pairItS0_IN4Tins11IPv4AddressES2_EENS1_9Internals10IPv4StreamESt4lessIS4_ESaIS0_IKS4_S6_EEE5clearEv W
_ZNSt3mapISt4pairItS0_IN4Tins11IPv4AddressES2_EENS1_9Internals10IPv4StreamESt4lessIS4_ESaIS0_IKS4_S6_EEE5eraseERS9_ W
_ZNSt3mapISt4pairItS0_IN4Tins11IPv4AddressES2_EENS1_9Internals10IPv4StreamESt4lessIS4_ESaIS0_IKS4_S6_EEE6insertESt17_Rb_tree_iteratorISA_ERKSA_ W
_ZNSt3mapISt4pairItS0_IN4Tins11IPv4AddressES2_EENS1_9Internals10IPv4StreamESt4lessIS4_ESaIS0_IKS4_S6_EEEC1Ev W
_ZNSt3mapISt4pairItS0_IN4Tins11IPv4AddressES2_EENS1_9Internals10IPv4StreamESt4lessIS4_ESaIS0_IKS4_S6_EEEC2Ev W
_ZNSt3mapISt4pairItS0_IN4Tins11IPv4AddressES2_EENS1_9Internals10IPv4StreamESt4lessIS4_ESaIS0_IKS4_S6_EEEixERS9_ W
_ZNSt3mapItPFPN4Tins3PDUEPKhjESt4lessItESaISt4pairIKtS6_EEE3endEv W
_ZNSt3mapItPFPN4Tins3PDUEPKhjESt4lessItESaISt4pairIKtS6_EEE4findERSA_ W
_ZNSt3mapItPFPN4Tins3PDUEPKhjESt4lessItESaISt4pairIKtS6_EEEC1Ev W
_ZNSt3mapItPFPN4Tins3PDUEPKhjESt4lessItESaISt4pairIKtS6_EEEC2Ev W
_ZNSt3mapItPFPN4Tins3PDUEPKhjESt4lessItESaISt4pairIKtS6_EEED1Ev W
_ZNSt3mapItPFPN4Tins3PDUEPKhjESt4lessItESaISt4pairIKtS6_EEED2Ev W
_ZNSt3setISsSt4lessISsESaISsEE6insertERKSs W
_ZNSt3setISsSt4lessISsESaISsEEC1Ev W
_ZNSt3setISsSt4lessISsESaISsEEC2Ev W
_ZNSt3setISsSt4lessISsESaISsEED1Ev W
_ZNSt3setISsSt4lessISsESaISsEED2Ev W
_ZNSt4pairIhhEC1Ev W
_ZNSt4pairIhhEC2Ev W
_ZNSt4pairIhSt6vectorIhSaIhEEEaSERKS3_ W
_ZNSt4pairIhSt6vectorIhSaIhEEEC1ERKhRKS2_ W
_ZNSt4pairIhSt6vectorIhSaIhEEEC1ERKS3_ W
_ZNSt4pairIhSt6vectorIhSaIhEEEC2ERKhRKS2_ W
_ZNSt4pairIhSt6vectorIhSaIhEEEC2ERKS3_ W
_ZNSt4pairIhSt6vectorIhSaIhEEED1Ev W
_ZNSt4pairIhSt6vectorIhSaIhEEED2Ev W
_ZNSt4pairIjjEC1Ev W
_ZNSt4pairIjjEC2Ev W
_ZNSt4pairIKN4Tins12PacketSender10SocketTypeEiEC1ERS3_RKi W
_ZNSt4pairIKN4Tins12PacketSender10SocketTypeEiEC2ERS3_RKi W
_ZNSt4pairIKS_ItS_IN4Tins11IPv4AddressES1_EENS0_9Internals10IPv4StreamEEC1ERKS7_ W
_ZNSt4pairIKS_ItS_IN4Tins11IPv4AddressES1_EENS0_9Internals10IPv4StreamEEC1ERS4_RKS6_ W
_ZNSt4pairIKS_ItS_IN4Tins11IPv4AddressES1_EENS0_9Internals10IPv4StreamEEC2ERKS7_ W
_ZNSt4pairIKS_ItS_IN4Tins11IPv4AddressES1_EENS0_9Internals10IPv4StreamEEC2ERS4_RKS6_ W
_ZNSt4pairIKS_ItS_IN4Tins11IPv4AddressES1_EENS0_9Internals10IPv4StreamEED1Ev W
_ZNSt4pairIKS_ItS_IN4Tins11IPv4AddressES1_EENS0_9Internals10IPv4StreamEED2Ev W
_ZNSt4pairIN4Tins11IPv4AddressES1_EC1ERKS1_S4_ W
_ZNSt4pairIN4Tins11IPv4AddressES1_EC2ERKS1_S4_ W
_ZNSt4pairIPjjEC1IS0_tEERKS_IT_T0_E W
_ZNSt4pairIPjjEC2IS0_tEERKS_IT_T0_E W
_ZNSt4pairIPjtEC1ERKS0_RKt W
_ZNSt4pairIPjtEC2ERKS0_RKt W
_ZNSt4pairIPSt18_Rb_tree_node_baseS1_EC1ERKS1_S4_ W
_ZNSt4pairIPSt18_Rb_tree_node_baseS1_EC2ERKS1_S4_ W
_ZNSt4pairISt17_Rb_tree_iteratorIS_IKS_ItS_IN4Tins11IPv4AddressES2_EENS1_9Internals10IPv4StreamEEES9_EC1ERKS9_SC_ W
_ZNSt4pairISt17_Rb_tree_iteratorIS_IKS_ItS_IN4Tins11IPv4AddressES2_EENS1_9Internals10IPv4StreamEEES9_EC2ERKS9_SC_ W
_ZNSt4pairISt17_Rb_tree_iteratorISsEbEC1ERKS1_RKb W
_ZNSt4pairISt17_Rb_tree_iteratorISsEbEC2ERKS1_RKb W
_ZNSt4pairISt23_Rb_tree_const_iteratorISsEbEC1ERKS1_RKb W
_ZNSt4pairISt23_Rb_tree_const_iteratorISsEbEC2ERKS1_RKb W
_ZNSt4pairItjEC1Ev W
_ZNSt4pairItjEC2Ev W
_ZNSt4pairItS_IN4Tins11IPv4AddressES1_EEC1ERKtRKS2_ W
_ZNSt4pairItS_IN4Tins11IPv4AddressES1_EEC2ERKtRKS2_ W
_ZNSt6vectorIfSaIfEE13_M_insert_auxEN9__gnu_cxx17__normal_iteratorIPfS1_EERKf W
_ZNSt6vectorIfSaIfEE3endEv W
_ZNSt6vectorIfSaIfEE5beginEv W
_ZNSt6vectorIfSaIfEE9push_backERKf W
_ZNSt6vectorIfSaIfEEC1Ev W
_ZNSt6vectorIfSaIfEEC2Ev W
_ZNSt6vectorIfSaIfEED1Ev W
_ZNSt6vectorIfSaIfEED2Ev W
_ZNSt6vectorIhSaIhEE13_M_assign_auxIPKhEEvT_S5_St20forward_iterator_tag W
_ZNSt6vectorIhSaIhEE13_M_insert_auxEN9__gnu_cxx17__normal_iteratorIPhS1_EERKh W
_ZNSt6vectorIhSaIhEE14_M_fill_insertEN9__gnu_cxx17__normal_iteratorIPhS1_EEmRKh W
_ZNSt6vectorIhSaIhEE15_M_erase_at_endEPh W
_ZNSt6vectorIhSaIhEE15_M_range_insertIN9__gnu_cxx17__normal_iteratorIPcSsEEEEvNS4_IPhS1_EET_S9_St20forward_iterator_tag W
_ZNSt6vectorIhSaIhEE15_M_range_insertIN9__gnu_cxx17__normal_iteratorIPKcSsEEEEvNS4_IPhS1_EET_SA_St20forward_iterator_tag W
_ZNSt6vectorIhSaIhEE15_M_range_insertIN9__gnu_cxx17__normal_iteratorIPKhS1_EEEEvNS4_IPhS1_EET_SA_St20forward_iterator_tag W
_ZNSt6vectorIhSaIhEE18_M_assign_dispatchIPKhEEvT_S5_St12__false_type W
_ZNSt6vectorIhSaIhEE18_M_fill_initializeEmRKh W
_ZNSt6vectorIhSaIhEE18_M_insert_dispatchIN9__gnu_cxx17__normal_iteratorIPcSsEEEEvNS4_IPhS1_EET_S9_St12__false_type W
_ZNSt6vectorIhSaIhEE18_M_insert_dispatchIN9__gnu_cxx17__normal_iteratorIPKcSsEEEEvNS4_IPhS1_EET_SA_St12__false_type W
_ZNSt6vectorIhSaIhEE18_M_insert_dispatchIN9__gnu_cxx17__normal_iteratorIPKhS1_EEEEvNS4_IPhS1_EET_SA_St12__false_type W
_ZNSt6vectorIhSaIhEE19_M_range_initializeIN9__gnu_cxx17__normal_iteratorIPKcSsEEEEvT_S8_St20forward_iterator_tag W
_ZNSt6vectorIhSaIhEE19_M_range_initializeIPKhEEvT_S5_St20forward_iterator_tag W
_ZNSt6vectorIhSaIhEE20_M_allocate_and_copyIN9__gnu_cxx17__normal_iteratorIPKhS1_EEEEPhmT_S9_ W
_ZNSt6vectorIhSaIhEE20_M_allocate_and_copyIPhEES3_mT_S4_ W
_ZNSt6vectorIhSaIhEE20_M_allocate_and_copyIPKhEEPhmT_S6_ W
_ZNSt6vectorIhSaIhEE22_M_initialize_dispatchIN9__gnu_cxx17__normal_iteratorIPKcSsEEEEvT_S8_St12__false_type W
_ZNSt6vectorIhSaIhEE22_M_initialize_dispatchIPKhEEvT_S5_St12__false_type W
_ZNSt6vectorIhSaIhEE3endEv W
_ZNSt6vectorIhSaIhEE5beginEv W
_ZNSt6vectorIhSaIhEE6assignIPKhEEvT_S5_ W
_ZNSt6vectorIhSaIhEE6insertEN9__gnu_cxx17__normal_iteratorIPhS1_EEmRKh W
_ZNSt6vectorIhSaIhEE6insertEN9__gnu_cxx17__normal_iteratorIPhS1_EERKh W
_ZNSt6vectorIhSaIhEE6insertIN9__gnu_cxx17__normal_iteratorIPcSsEEEEvNS4_IPhS1_EET_S9_ W
_ZNSt6vectorIhSaIhEE6insertIN9__gnu_cxx17__normal_iteratorIPKcSsEEEEvNS4_IPhS1_EET_SA_ W
_ZNSt6vectorIhSaIhEE6insertIN9__gnu_cxx17__normal_iteratorIPKhS1_EEEEvNS4_IPhS1_EET_SA_ W
_ZNSt6vectorIhSaIhEE6resizeEmh W
_ZNSt6vectorIhSaIhEE7reserveEm W
_ZNSt6vectorIhSaIhEE9push_backERKh W
_ZNSt6vectorIhSaIhEEaSERKS1_ W
_ZNSt6vectorIhSaIhEEC1EmRKhRKS0_ W
_ZNSt6vectorIhSaIhEEC1ERKS1_ W
_ZNSt6vectorIhSaIhEEC1Ev W
_ZNSt6vectorIhSaIhEEC1IN9__gnu_cxx17__normal_iteratorIPKcSsEEEET_S8_RKS0_ W
_ZNSt6vectorIhSaIhEEC1IPKhEET_S5_RKS0_ W
_ZNSt6vectorIhSaIhEEC2EmRKhRKS0_ W
_ZNSt6vectorIhSaIhEEC2ERKS1_ W
_ZNSt6vectorIhSaIhEEC2Ev W
_ZNSt6vectorIhSaIhEEC2IN9__gnu_cxx17__normal_iteratorIPKcSsEEEET_S8_RKS0_ W
_ZNSt6vectorIhSaIhEEC2IPKhEET_S5_RKS0_ W
_ZNSt6vectorIhSaIhEED1Ev W
_ZNSt6vectorIhSaIhEED2Ev W
_ZNSt6vectorIhSaIhEEixEm W
_ZNSt6vectorIiSaIiEE13_M_insert_auxEN9__gnu_cxx17__normal_iteratorIPiS1_EERKi W
_ZNSt6vectorIiSaIiEE18_M_fill_initializeEmRKi W
_ZNSt6vectorIiSaIiEE22_M_initialize_dispatchIiEEvT_S3_St11__true_type W
_ZNSt6vectorIiSaIiEE3endEv W
_ZNSt6vectorIiSaIiEE5beginEv W
_ZNSt6vectorIiSaIiEE9push_backERKi W
_ZNSt6vectorIiSaIiEEC1EmRKiRKS0_ W
_ZNSt6vectorIiSaIiEEC1IiEET_S3_RKS0_ W
_ZNSt6vectorIiSaIiEEC2EmRKiRKS0_ W
_ZNSt6vectorIiSaIiEEC2IiEET_S3_RKS0_ W
_ZNSt6vectorIiSaIiEED1Ev W
_ZNSt6vectorIiSaIiEED2Ev W
_ZNSt6vectorIiSaIiEEixEm W
_ZNSt6vectorIjSaIjEE18_M_fill_initializeEmRKj W
_ZNSt6vectorIjSaIjEE5beginEv W
_ZNSt6vectorIjSaIjEEC1EmRKjRKS0_ W
_ZNSt6vectorIjSaIjEEC2EmRKjRKS0_ W
_ZNSt6vectorIjSaIjEED1Ev W
_ZNSt6vectorIjSaIjEED2Ev W
_ZNSt6vectorIN4Tins11IPv4AddressESaIS1_EE13_M_insert_auxEN9__gnu_cxx17__normal_iteratorIPS1_S3_EERKS1_ W
_ZNSt6vectorIN4Tins11IPv4AddressESaIS1_EE18_M_fill_initializeEmRKS1_ W
_ZNSt6vectorIN4Tins11IPv4AddressESaIS1_EE3endEv W
_ZNSt6vectorIN4Tins11IPv4AddressESaIS1_EE5beginEv W
_ZNSt6vectorIN4Tins11IPv4AddressESaIS1_EE9push_backERKS1_ W
_ZNSt6vectorIN4Tins11IPv4AddressESaIS1_EEC1EmRKS1_RKS2_ W
_ZNSt6vectorIN4Tins11IPv4AddressESaIS1_EEC1ERKS3_ W
_ZNSt6vectorIN4Tins11IPv4AddressESaIS1_EEC1Ev W
_ZNSt6vectorIN4Tins11IPv4AddressESaIS1_EEC2EmRKS1_RKS2_ W
_ZNSt6vectorIN4Tins11IPv4AddressESaIS1_EEC2ERKS3_ W
_ZNSt6vectorIN4Tins11IPv4AddressESaIS1_EEC2Ev W
_ZNSt6vectorIN4Tins11IPv4AddressESaIS1_EED1Ev W
_ZNSt6vectorIN4Tins11IPv4AddressESaIS1_EED2Ev W
_ZNSt6vectorIN4Tins11IPv6AddressESaIS1_EE13_M_insert_auxEN9__gnu_cxx17__normal_iteratorIPS1_S3_EERKS1_ W
_ZNSt6vectorIN4Tins11IPv6AddressESaIS1_EE20_M_allocate_and_copyIN9__gnu_cxx17__normal_iteratorIPKS1_S3_EEEEPS1_mT_SB_ W
_ZNSt6vectorIN4Tins11IPv6AddressESaIS1_EE3endEv W
_ZNSt6vectorIN4Tins11IPv6AddressESaIS1_EE5beginEv W
_ZNSt6vectorIN4Tins11IPv6AddressESaIS1_EE9push_backERKS1_ W
_ZNSt6vectorIN4Tins11IPv6AddressESaIS1_EEaSERKS3_ W
_ZNSt6vectorIN4Tins11IPv6AddressESaIS1_EEC1ERKS3_ W
_ZNSt6vectorIN4Tins11IPv6AddressESaIS1_EEC1Ev W
_ZNSt6vectorIN4Tins11IPv6AddressESaIS1_EEC2ERKS3_ W
_ZNSt6vectorIN4Tins11IPv6AddressESaIS1_EEC2Ev W
_ZNSt6vectorIN4Tins11IPv6AddressESaIS1_EED1Ev W
_ZNSt6vectorIN4Tins11IPv6AddressESaIS1_EED2Ev W
_ZNSt6vectorIN4Tins13ICMPExtensionESaIS1_EE13_M_insert_auxEN9__gnu_cxx17__normal_iteratorIPS1_S3_EERKS1_ W
_ZNSt6vectorIN4Tins13ICMPExtensionESaIS1_EE20_M_allocate_and_copyIN9__gnu_cxx17__normal_iteratorIPKS1_S3_EEEEPS1_mT_SB_ W
_ZNSt6vectorIN4Tins13ICMPExtensionESaIS1_EE3endEv W
_ZNSt6vectorIN4Tins13ICMPExtensionESaIS1_EE5beginEv W
_ZNSt6vectorIN4Tins13ICMPExtensionESaIS1_EE9push_backERKS1_ W
_ZNSt6vectorIN4Tins13ICMPExtensionESaIS1_EEaSERKS3_ W
_ZNSt6vectorIN4Tins13ICMPExtensionESaIS1_EEC1ERKS3_ W
_ZNSt6vectorIN4Tins13ICMPExtensionESaIS1_EEC1Ev W
_ZNSt6vectorIN4Tins13ICMPExtensionESaIS1_EEC2ERKS3_ W
_ZNSt6vectorIN4Tins13ICMPExtensionESaIS1_EEC2Ev W
_ZNSt6vectorIN4Tins13ICMPExtensionESaIS1_EED1Ev W
_ZNSt6vectorIN4Tins13ICMPExtensionESaIS1_EED2Ev W
_ZNSt6vectorIN4Tins16NetworkInterface10IPv6PrefixESaIS2_EE13_M_insert_auxEN9__gnu_cxx17__normal_iteratorIPS2_S4_EERKS2_ W
_ZNSt6vectorIN4Tins16NetworkInterface10IPv6PrefixESaIS2_EE3endEv W
_ZNSt6vectorIN4Tins16NetworkInterface10IPv6PrefixESaIS2_EE5beginEv W
_ZNSt6vectorIN4Tins16NetworkInterface10IPv6PrefixESaIS2_EE9push_backERKS2_ W
_ZNSt6vectorIN4Tins16NetworkInterface10IPv6PrefixESaIS2_EEC1ERKS4_ W
_ZNSt6vectorIN4Tins16NetworkInterface10IPv6PrefixESaIS2_EEC1Ev W
_ZNSt6vectorIN4Tins16NetworkInterface10IPv6PrefixESaIS2_EEC2ERKS4_ W
_ZNSt6vectorIN4Tins16NetworkInterface10IPv6PrefixESaIS2_EEC2Ev W
_ZNSt6vectorIN4Tins16NetworkInterface10IPv6PrefixESaIS2_EED1Ev W
_ZNSt6vectorIN4Tins16NetworkInterface10IPv6PrefixESaIS2_EED2Ev W
_ZNSt6vectorIN4Tins16NetworkInterfaceESaIS1_EE13_M_insert_auxEN9__gnu_cxx17__normal_iteratorIPS1_S3_EERKS1_ W
_ZNSt6vectorIN4Tins16NetworkInterfaceESaIS1_EE3endEv W
_ZNSt6vectorIN4Tins16NetworkInterfaceESaIS1_EE5beginEv W
_ZNSt6vectorIN4Tins16NetworkInterfaceESaIS1_EE9push_backERKS1_ W
_ZNSt6vectorIN4Tins16NetworkInterfaceESaIS1_EEC1Ev W
_ZNSt6vectorIN4Tins16NetworkInterfaceESaIS1_EEC2Ev W
_ZNSt6vectorIN4Tins16NetworkInterfaceESaIS1_EED1Ev W
_ZNSt6vectorIN4Tins16NetworkInterfaceESaIS1_EED2Ev W
_ZNSt6vectorIN4Tins3DNS5queryESaIS2_EE13_M_insert_auxEN9__gnu_cxx17__normal_iteratorIPS2_S4_EERKS2_ W
_ZNSt6vectorIN4Tins3DNS5queryESaIS2_EE3endEv W
_ZNSt6vectorIN4Tins3DNS5queryESaIS2_EE5beginEv W
_ZNSt6vectorIN4Tins3DNS5queryESaIS2_EE9push_backERKS2_ W
_ZNSt6vectorIN4Tins3DNS5queryESaIS2_EEC1Ev W
_ZNSt6vectorIN4Tins3DNS5queryESaIS2_EEC2Ev W
_ZNSt6vectorIN4Tins3DNS5queryESaIS2_EED1Ev W
_ZNSt6vectorIN4Tins3DNS5queryESaIS2_EED2Ev W
_ZNSt6vectorIN4Tins3DNS8resourceESaIS2_EE13_M_insert_auxEN9__gnu_cxx17__normal_iteratorIPS2_S4_EERKS2_ W
_ZNSt6vectorIN4Tins3DNS8resourceESaIS2_EE3endEv W
_ZNSt6vectorIN4Tins3DNS8resourceESaIS2_EE5beginEv W
_ZNSt6vectorIN4Tins3DNS8resourceESaIS2_EE9push_backERKS2_ W
_ZNSt6vectorIN4Tins3DNS8resourceESaIS2_EEC1Ev W
_ZNSt6vectorIN4Tins3DNS8resourceESaIS2_EEC2Ev W
_ZNSt6vectorIN4Tins3DNS8resourceESaIS2_EED1Ev W
_ZNSt6vectorIN4Tins3DNS8resourceESaIS2_EED2Ev W
_ZNSt6vectorIN4Tins5Utils10RouteEntryESaIS2_EE13_M_insert_auxEN9__gnu_cxx17__normal_iteratorIPS2_S4_EERKS2_ W
_ZNSt6vectorIN4Tins5Utils10RouteEntryESaIS2_EE3endEv W
_ZNSt6vectorIN4Tins5Utils10RouteEntryESaIS2_EE5beginEv W
_ZNSt6vectorIN4Tins5Utils10RouteEntryESaIS2_EE9push_backERKS2_ W
_ZNSt6vectorIN4Tins5Utils10RouteEntryESaIS2_EEC1Ev W
_ZNSt6vectorIN4Tins5Utils10RouteEntryESaIS2_EEC2Ev W
_ZNSt6vectorIN4Tins5Utils10RouteEntryESaIS2_EED1Ev W
_ZNSt6vectorIN4Tins5Utils10RouteEntryESaIS2_EED2Ev W
_ZNSt6vectorIN4Tins5Utils10RouteEntryESaIS2_EEixEm W
_ZNSt6vectorIN4Tins5Utils11Route6EntryESaIS2_EE13_M_insert_auxEN9__gnu_cxx17__normal_iteratorIPS2_S4_EERKS2_ W
_ZNSt6vectorIN4Tins5Utils11Route6EntryESaIS2_EE3endEv W
_ZNSt6vectorIN4Tins5Utils11Route6EntryESaIS2_EE5beginEv W
_ZNSt6vectorIN4Tins5Utils11Route6EntryESaIS2_EE9push_backERKS2_ W
_ZNSt6vectorIN4Tins5Utils11Route6EntryESaIS2_EEC1Ev W
_ZNSt6vectorIN4Tins5Utils11Route6EntryESaIS2_EEC2Ev W
_ZNSt6vectorIN4Tins5Utils11Route6EntryESaIS2_EED1Ev W
_ZNSt6vectorIN4Tins5Utils11Route6EntryESaIS2_EED2Ev W
_ZNSt6vectorIN4Tins5Utils11Route6EntryESaIS2_EEixEm W
_ZNSt6vectorIN4Tins6ICMPv624multicast_address_recordESaIS2_EE13_M_insert_auxEN9__gnu_cxx17__normal_iteratorIPS2_S4_EERKS2_ W
_ZNSt6vectorIN4Tins6ICMPv624multicast_address_recordESaIS2_EE20_M_allocate_and_copyIN9__gnu_cxx17__normal_iteratorIPKS2_S4_EEEEPS2_mT_SC_ W
_ZNSt6vectorIN4Tins6ICMPv624multicast_address_recordESaIS2_EE3endEv W
_ZNSt6vectorIN4Tins6ICMPv624multicast_address_recordESaIS2_EE4backEv W
_ZNSt6vectorIN4Tins6ICMPv624multicast_address_recordESaIS2_EE5beginEv W
_ZNSt6vectorIN4Tins6ICMPv624multicast_address_recordESaIS2_EE9push_backERKS2_ W
_ZNSt6vectorIN4Tins6ICMPv624multicast_address_recordESaIS2_EEaSERKS4_ W
_ZNSt6vectorIN4Tins6ICMPv624multicast_address_recordESaIS2_EEC1ERKS4_ W
_ZNSt6vectorIN4Tins6ICMPv624multicast_address_recordESaIS2_EEC1Ev W
_ZNSt6vectorIN4Tins6ICMPv624multicast_address_recordESaIS2_EEC2ERKS4_ W
_ZNSt6vectorIN4Tins6ICMPv624multicast_address_recordESaIS2_EEC2Ev W
_ZNSt6vectorIN4Tins6ICMPv624multicast_address_recordESaIS2_EED1Ev W
_ZNSt6vectorIN4Tins6ICMPv624multicast_address_recordESaIS2_EED2Ev W
_ZNSt6vectorIN4Tins9Internals12IPv4FragmentESaIS2_EE13_M_insert_auxEN9__gnu_cxx17__normal_iteratorIPS2_S4_EERKS2_ W
_ZNSt6vectorIN4Tins9Internals12IPv4FragmentESaIS2_EE3endEv W
_ZNSt6vectorIN4Tins9Internals12IPv4FragmentESaIS2_EE5beginEv W
_ZNSt6vectorIN4Tins9Internals12IPv4FragmentESaIS2_EE6insertEN9__gnu_cxx17__normal_iteratorIPS2_S4_EERKS2_ W
_ZNSt6vectorIN4Tins9Internals12IPv4FragmentESaIS2_EEC1ERKS4_ W
_ZNSt6vectorIN4Tins9Internals12IPv4FragmentESaIS2_EEC1Ev W
_ZNSt6vectorIN4Tins9Internals12IPv4FragmentESaIS2_EEC2ERKS4_ W
_ZNSt6vectorIN4Tins9Internals12IPv4FragmentESaIS2_EEC2Ev W
_ZNSt6vectorIN4Tins9Internals12IPv4FragmentESaIS2_EED1Ev W
_ZNSt6vectorIN4Tins9Internals12IPv4FragmentESaIS2_EED2Ev W
_ZNSt6vectorIN4Tins9PDUOptionIhNS0_3TCPEEESaIS3_EE13_M_insert_auxEN9__gnu_cxx17__normal_iteratorIPS3_S5_EERKS3_ W
_ZNSt6vectorIN4Tins9PDUOptionIhNS0_3TCPEEESaIS3_EE20_M_allocate_and_copyIPS3_EES7_mT_S8_ W
_ZNSt6vectorIN4Tins9PDUOptionIhNS0_3TCPEEESaIS3_EE3endEv W
_ZNSt6vectorIN4Tins9PDUOptionIhNS0_3TCPEEESaIS3_EE5beginEv W
_ZNSt6vectorIN4Tins9PDUOptionIhNS0_3TCPEEESaIS3_EE5eraseEN9__gnu_cxx17__normal_iteratorIPS3_S5_EE W
_ZNSt6vectorIN4Tins9PDUOptionIhNS0_3TCPEEESaIS3_EE7reserveEm W
_ZNSt6vectorIN4Tins9PDUOptionIhNS0_3TCPEEESaIS3_EE9push_backERKS3_ W
_ZNSt6vectorIN4Tins9PDUOptionIhNS0_3TCPEEESaIS3_EEC1ERKS5_ W
_ZNSt6vectorIN4Tins9PDUOptionIhNS0_3TCPEEESaIS3_EEC1Ev W
_ZNSt6vectorIN4Tins9PDUOptionIhNS0_3TCPEEESaIS3_EEC2ERKS5_ W
_ZNSt6vectorIN4Tins9PDUOptionIhNS0_3TCPEEESaIS3_EEC2Ev W
_ZNSt6vectorIN4Tins9PDUOptionIhNS0_3TCPEEESaIS3_EED1Ev W
_ZNSt6vectorIN4Tins9PDUOptionIhNS0_3TCPEEESaIS3_EED2Ev W
_ZNSt6vectorIN4Tins9PDUOptionIhNS0_4DHCPEEESaIS3_EE13_M_insert_auxEN9__gnu_cxx17__normal_iteratorIPS3_S5_EERKS3_ W
_ZNSt6vectorIN4Tins9PDUOptionIhNS0_4DHCPEEESaIS3_EE3endEv W
_ZNSt6vectorIN4Tins9PDUOptionIhNS0_4DHCPEEESaIS3_EE5beginEv W
_ZNSt6vectorIN4Tins9PDUOptionIhNS0_4DHCPEEESaIS3_EE5eraseEN9__gnu_cxx17__normal_iteratorIPS3_S5_EE W
_ZNSt6vectorIN4Tins9PDUOptionIhNS0_4DHCPEEESaIS3_EE9push_backERKS3_ W
_ZNSt6vectorIN4Tins9PDUOptionIhNS0_4DHCPEEESaIS3_EEC1ERKS5_ W
_ZNSt6vectorIN4Tins9PDUOptionIhNS0_4DHCPEEESaIS3_EEC1Ev W
_ZNSt6vectorIN4Tins9PDUOptionIhNS0_4DHCPEEESaIS3_EEC2ERKS5_ W
_ZNSt6vectorIN4Tins9PDUOptionIhNS0_4DHCPEEESaIS3_EEC2Ev W
_ZNSt6vectorIN4Tins9PDUOptionIhNS0_4DHCPEEESaIS3_EED1Ev W
_ZNSt6vectorIN4Tins9PDUOptionIhNS0_4DHCPEEESaIS3_EED2Ev W
_ZNSt6vectorIN4Tins9PDUOptionIhNS0_4IPv6EEESaIS3_EE13_M_insert_auxEN9__gnu_cxx17__normal_iteratorIPS3_S5_EERKS3_ W
_ZNSt6vectorIN4Tins9PDUOptionIhNS0_4IPv6EEESaIS3_EE3endEv W
_ZNSt6vectorIN4Tins9PDUOptionIhNS0_4IPv6EEESaIS3_EE4backEv W
_ZNSt6vectorIN4Tins9PDUOptionIhNS0_4IPv6EEESaIS3_EE5beginEv W
_ZNSt6vectorIN4Tins9PDUOptionIhNS0_4IPv6EEESaIS3_EE9push_backERKS3_ W
_ZNSt6vectorIN4Tins9PDUOptionIhNS0_4IPv6EEESaIS3_EEC1ERKS5_ W
_ZNSt6vectorIN4Tins9PDUOptionIhNS0_4IPv6EEESaIS3_EEC1Ev W
_ZNSt6vectorIN4Tins9PDUOptionIhNS0_4IPv6EEESaIS3_EEC2ERKS5_ W
_ZNSt6vectorIN4Tins9PDUOptionIhNS0_4IPv6EEESaIS3_EEC2Ev W
_ZNSt6vectorIN4Tins9PDUOptionIhNS0_4IPv6EEESaIS3_EED1Ev W
_ZNSt6vectorIN4Tins9PDUOptionIhNS0_4IPv6EEESaIS3_EED2Ev W
_ZNSt6vectorIN4Tins9PDUOptionIhNS0_4IPv6EEESaIS3_EEixEm W
_ZNSt6vectorIN4Tins9PDUOptionIhNS0_6ICMPv6EEESaIS3_EE13_M_insert_auxEN9__gnu_cxx17__normal_iteratorIPS3_S5_EERKS3_ W
_ZNSt6vectorIN4Tins9PDUOptionIhNS0_6ICMPv6EEESaIS3_EE3endEv W
_ZNSt6vectorIN4Tins9PDUOptionIhNS0_6ICMPv6EEESaIS3_EE5beginEv W
_ZNSt6vectorIN4Tins9PDUOptionIhNS0_6ICMPv6EEESaIS3_EE5eraseEN9__gnu_cxx17__normal_iteratorIPS3_S5_EE W
_ZNSt6vectorIN4Tins9PDUOptionIhNS0_6ICMPv6EEESaIS3_EE9push_backERKS3_ W
_ZNSt6vectorIN4Tins9PDUOptionIhNS0_6ICMPv6EEESaIS3_EEC1ERKS5_ W
_ZNSt6vectorIN4Tins9PDUOptionIhNS0_6ICMPv6EEESaIS3_EEC1Ev W
_ZNSt6vectorIN4Tins9PDUOptionIhNS0_6ICMPv6EEESaIS3_EEC2ERKS5_ W
_ZNSt6vectorIN4Tins9PDUOptionIhNS0_6ICMPv6EEESaIS3_EEC2Ev W
_ZNSt6vectorIN4Tins9PDUOptionIhNS0_6ICMPv6EEESaIS3_EED1Ev W
_ZNSt6vectorIN4Tins9PDUOptionIhNS0_6ICMPv6EEESaIS3_EED2Ev W
_ZNSt6vectorIN4Tins9PDUOptionINS0_2IP17option_identifierES2_EESaIS4_EE13_M_insert_auxEN9__gnu_cxx17__normal_iteratorIPS4_S6_EERKS4_ W
_ZNSt6vectorIN4Tins9PDUOptionINS0_2IP17option_identifierES2_EESaIS4_EE20_M_allocate_and_copyIN9__gnu_cxx17__normal_iteratorIPKS4_S6_EEEEPS4_mT_SE_ W
_ZNSt6vectorIN4Tins9PDUOptionINS0_2IP17option_identifierES2_EESaIS4_EE3endEv W
_ZNSt6vectorIN4Tins9PDUOptionINS0_2IP17option_identifierES2_EESaIS4_EE5beginEv W
_ZNSt6vectorIN4Tins9PDUOptionINS0_2IP17option_identifierES2_EESaIS4_EE5eraseEN9__gnu_cxx17__normal_iteratorIPS4_S6_EE W
_ZNSt6vectorIN4Tins9PDUOptionINS0_2IP17option_identifierES2_EESaIS4_EE9push_backERKS4_ W
_ZNSt6vectorIN4Tins9PDUOptionINS0_2IP17option_identifierES2_EESaIS4_EEaSERKS6_ W
_ZNSt6vectorIN4Tins9PDUOptionINS0_2IP17option_identifierES2_EESaIS4_EEC1ERKS6_ W
_ZNSt6vectorIN4Tins9PDUOptionINS0_2IP17option_identifierES2_EESaIS4_EEC1Ev W
_ZNSt6vectorIN4Tins9PDUOptionINS0_2IP17option_identifierES2_EESaIS4_EEC2ERKS6_ W
_ZNSt6vectorIN4Tins9PDUOptionINS0_2IP17option_identifierES2_EESaIS4_EEC2Ev W
_ZNSt6vectorIN4Tins9PDUOptionINS0_2IP17option_identifierES2_EESaIS4_EED1Ev W
_ZNSt6vectorIN4Tins9PDUOptionINS0_2IP17option_identifierES2_EESaIS4_EED2Ev W
_ZNSt6vectorIN4Tins9PDUOptionINS0_5PPPoE8TagTypesES2_EESaIS4_EE13_M_insert_auxEN9__gnu_cxx17__normal_iteratorIPS4_S6_EERKS4_ W
_ZNSt6vectorIN4Tins9PDUOptionINS0_5PPPoE8TagTypesES2_EESaIS4_EE3endEv W
_ZNSt6vectorIN4Tins9PDUOptionINS0_5PPPoE8TagTypesES2_EESaIS4_EE5beginEv W
_ZNSt6vectorIN4Tins9PDUOptionINS0_5PPPoE8TagTypesES2_EESaIS4_EE9push_backERKS4_ W
_ZNSt6vectorIN4Tins9PDUOptionINS0_5PPPoE8TagTypesES2_EESaIS4_EEC1ERKS6_ W
_ZNSt6vectorIN4Tins9PDUOptionINS0_5PPPoE8TagTypesES2_EESaIS4_EEC1Ev W
_ZNSt6vectorIN4Tins9PDUOptionINS0_5PPPoE8TagTypesES2_EESaIS4_EEC2ERKS6_ W
_ZNSt6vectorIN4Tins9PDUOptionINS0_5PPPoE8TagTypesES2_EESaIS4_EEC2Ev W
_ZNSt6vectorIN4Tins9PDUOptionINS0_5PPPoE8TagTypesES2_EESaIS4_EED1Ev W
_ZNSt6vectorIN4Tins9PDUOptionINS0_5PPPoE8TagTypesES2_EESaIS4_EED2Ev W
_ZNSt6vectorIN4Tins9PDUOptionItNS0_6DHCPv6EEESaIS3_EE13_M_insert_auxEN9__gnu_cxx17__normal_iteratorIPS3_S5_EERKS3_ W
_ZNSt6vectorIN4Tins9PDUOptionItNS0_6DHCPv6EEESaIS3_EE3endEv W
_ZNSt6vectorIN4Tins9PDUOptionItNS0_6DHCPv6EEESaIS3_EE5beginEv W
_ZNSt6vectorIN4Tins9PDUOptionItNS0_6DHCPv6EEESaIS3_EE5eraseEN9__gnu_cxx17__normal_iteratorIPS3_S5_EE W
_ZNSt6vectorIN4Tins9PDUOptionItNS0_6DHCPv6EEESaIS3_EE9push_backERKS3_ W
_ZNSt6vectorIN4Tins9PDUOptionItNS0_6DHCPv6EEESaIS3_EEC1ERKS5_ W
_ZNSt6vectorIN4Tins9PDUOptionItNS0_6DHCPv6EEESaIS3_EEC1Ev W
_ZNSt6vectorIN4Tins9PDUOptionItNS0_6DHCPv6EEESaIS3_EEC2ERKS5_ W
_ZNSt6vectorIN4Tins9PDUOptionItNS0_6DHCPv6EEESaIS3_EEC2Ev W
_ZNSt6vectorIN4Tins9PDUOptionItNS0_6DHCPv6EEESaIS3_EED1Ev W
_ZNSt6vectorIN4Tins9PDUOptionItNS0_6DHCPv6EEESaIS3_EED2Ev W
_ZNSt6vectorIS_IhSaIhEESaIS1_EE13_M_insert_auxEN9__gnu_cxx17__normal_iteratorIPS1_S3_EERKS1_ W
_ZNSt6vectorIS_IhSaIhEESaIS1_EE15_M_erase_at_endEPS1_ W
_ZNSt6vectorIS_IhSaIhEESaIS1_EE20_M_allocate_and_copyIN9__gnu_cxx17__normal_iteratorIPKS1_S3_EEEEPS1_mT_SB_ W
_ZNSt6vectorIS_IhSaIhEESaIS1_EE3endEv W
_ZNSt6vectorIS_IhSaIhEESaIS1_EE5beginEv W
_ZNSt6vectorIS_IhSaIhEESaIS1_EE5clearEv W
_ZNSt6vectorIS_IhSaIhEESaIS1_EE9push_backERKS1_ W
_ZNSt6vectorIS_IhSaIhEESaIS1_EEaSERKS3_ W
_ZNSt6vectorIS_IhSaIhEESaIS1_EEC1ERKS3_ W
_ZNSt6vectorIS_IhSaIhEESaIS1_EEC1Ev W
_ZNSt6vectorIS_IhSaIhEESaIS1_EEC2ERKS3_ W
_ZNSt6vectorIS_IhSaIhEESaIS1_EEC2Ev W
_ZNSt6vectorIS_IhSaIhEESaIS1_EED1Ev W
_ZNSt6vectorIS_IhSaIhEESaIS1_EED2Ev W
_ZNSt6vectorISsSaISsEE13_M_insert_auxEN9__gnu_cxx17__normal_iteratorIPSsS1_EERKSs W
_ZNSt6vectorISsSaISsEE3endEv W
_ZNSt6vectorISsSaISsEE5beginEv W
_ZNSt6vectorISsSaISsEE9push_backERKSs W
_ZNSt6vectorISsSaISsEEC1ERKS1_ W
_ZNSt6vectorISsSaISsEEC1Ev W
_ZNSt6vectorISsSaISsEEC2ERKS1_ W
_ZNSt6vectorISsSaISsEEC2Ev W
_ZNSt6vectorISsSaISsEED1Ev W
_ZNSt6vectorISsSaISsEED2Ev W
_ZNSt6vectorISt4pairIhhESaIS1_EE13_M_insert_auxEN9__gnu_cxx17__normal_iteratorIPS1_S3_EERKS1_ W
_ZNSt6vectorISt4pairIhhESaIS1_EE3endEv W
_ZNSt6vectorISt4pairIhhESaIS1_EE5beginEv W
_ZNSt6vectorISt4pairIhhESaIS1_EE9push_backERKS1_ W
_ZNSt6vectorISt4pairIhhESaIS1_EEC1Ev W
_ZNSt6vectorISt4pairIhhESaIS1_EEC2Ev W
_ZNSt6vectorISt4pairIhhESaIS1_EED1Ev W
_ZNSt6vectorISt4pairIhhESaIS1_EED2Ev W
_ZNSt6vectorISt4pairIhS_IhSaIhEEESaIS3_EE13_M_insert_auxEN9__gnu_cxx17__normal_iteratorIPS3_S5_EERKS3_ W
_ZNSt6vectorISt4pairIhS_IhSaIhEEESaIS3_EE20_M_allocate_and_copyIN9__gnu_cxx17__normal_iteratorIPKS3_S5_EEEEPS3_mT_SD_ W
_ZNSt6vectorISt4pairIhS_IhSaIhEEESaIS3_EE3endEv W
_ZNSt6vectorISt4pairIhS_IhSaIhEEESaIS3_EE5beginEv W
_ZNSt6vectorISt4pairIhS_IhSaIhEEESaIS3_EE9push_backERKS3_ W
_ZNSt6vectorISt4pairIhS_IhSaIhEEESaIS3_EEaSERKS5_ W
_ZNSt6vectorISt4pairIhS_IhSaIhEEESaIS3_EEC1Ev W
_ZNSt6vectorISt4pairIhS_IhSaIhEEESaIS3_EEC2Ev W
_ZNSt6vectorISt4pairIhS_IhSaIhEEESaIS3_EED1Ev W
_ZNSt6vectorISt4pairIhS_IhSaIhEEESaIS3_EED2Ev W
_ZNSt6vectorISt4pairIPjjESaIS2_EE13_M_insert_auxEN9__gnu_cxx17__normal_iteratorIPS2_S4_EERKS2_ W
_ZNSt6vectorISt4pairIPjjESaIS2_EE3endEv W
_ZNSt6vectorISt4pairIPjjESaIS2_EE5beginEv W
_ZNSt6vectorISt4pairIPjjESaIS2_EE9push_backERKS2_ W
_ZNSt6vectorISt4pairIPjjESaIS2_EEC1Ev W
_ZNSt6vectorISt4pairIPjjESaIS2_EEC2Ev W
_ZNSt6vectorISt4pairIPjjESaIS2_EED1Ev W
_ZNSt6vectorISt4pairIPjjESaIS2_EED2Ev W
_ZNSt6vectorItSaItEE18_M_fill_initializeEmRKt W
_ZNSt6vectorItSaItEE5beginEv W
_ZNSt6vectorItSaItEEC1EmRKtRKS0_ W
_ZNSt6vectorItSaItEEC2EmRKtRKS0_ W
_ZNSt6vectorItSaItEED1Ev W
_ZNSt6vectorItSaItEED2Ev W
_ZNSt7__equalILb1EE5equalIhEEbPKT_S4_S4_ W
_ZNSt8auto_ptrIN4Tins3PDUEEC1EPS1_ W
_ZNSt8auto_ptrIN4Tins3PDUEEC2EPS1_ W
_ZNSt8auto_ptrIN4Tins3PDUEED1Ev W
_ZNSt8auto_ptrIN4Tins3PDUEED2Ev W
_ZNSt8iteratorISt19output_iterator_tagvvvvEC1Ev W
_ZNSt8iteratorISt19output_iterator_tagvvvvEC2Ev W
_ZNSt8_Rb_treeIhSt4pairIKhPFPN4Tins3PDUEPS1_jEESt10_Select1stIS8_ESt4lessIhESaIS8_EE11_M_put_nodeEPSt13_Rb_tree_nodeIS8_E W
_ZNSt8_Rb_treeIhSt4pairIKhPFPN4Tins3PDUEPS1_jEESt10_Select1stIS8_ESt4lessIhESaIS8_EE13_Rb_tree_implISC_Lb0EE13_M_initializeEv W
_ZNSt8_Rb_treeIhSt4pairIKhPFPN4Tins3PDUEPS1_jEESt10_Select1stIS8_ESt4lessIhESaIS8_EE13_Rb_tree_implISC_Lb0EEC1Ev W
_ZNSt8_Rb_treeIhSt4pairIKhPFPN4Tins3PDUEPS1_jEESt10_Select1stIS8_ESt4lessIhESaIS8_EE13_Rb_tree_implISC_Lb0EEC2Ev W
_ZNSt8_Rb_treeIhSt4pairIKhPFPN4Tins3PDUEPS1_jEESt10_Select1stIS8_ESt4lessIhESaIS8_EE13_Rb_tree_implISC_Lb0EED1Ev W
_ZNSt8_Rb_treeIhSt4pairIKhPFPN4Tins3PDUEPS1_jEESt10_Select1stIS8_ESt4lessIhESaIS8_EE13_Rb_tree_implISC_Lb0EED2Ev W
_ZNSt8_Rb_treeIhSt4pairIKhPFPN4Tins3PDUEPS1_jEESt10_Select1stIS8_ESt4lessIhESaIS8_EE14_M_lower_boundEPSt13_Rb_tree_nodeIS8_ESH_RS1_ W
_ZNSt8_Rb_treeIhSt4pairIKhPFPN4Tins3PDUEPS1_jEESt10_Select1stIS8_ESt4lessIhESaIS8_EE15_M_destroy_nodeEPSt13_Rb_tree_nodeIS8_E W
_ZNSt8_Rb_treeIhSt4pairIKhPFPN4Tins3PDUEPS1_jEESt10_Select1stIS8_ESt4lessIhESaIS8_EE3endEv W
_ZNSt8_Rb_treeIhSt4pairIKhPFPN4Tins3PDUEPS1_jEESt10_Select1stIS8_ESt4lessIhESaIS8_EE4findERS1_ W
_ZNSt8_Rb_treeIhSt4pairIKhPFPN4Tins3PDUEPS1_jEESt10_Select1stIS8_ESt4lessIhESaIS8_EE6_M_endEv W
_ZNSt8_Rb_treeIhSt4pairIKhPFPN4Tins3PDUEPS1_jEESt10_Select1stIS8_ESt4lessIhESaIS8_EE6_S_keyEPKSt13_Rb_tree_nodeIS8_E W
_ZNSt8_Rb_treeIhSt4pairIKhPFPN4Tins3PDUEPS1_jEESt10_Select1stIS8_ESt4lessIhESaIS8_EE6_S_keyEPKSt18_Rb_tree_node_base W
_ZNSt8_Rb_treeIhSt4pairIKhPFPN4Tins3PDUEPS1_jEESt10_Select1stIS8_ESt4lessIhESaIS8_EE7_S_leftEPSt18_Rb_tree_node_base W
_ZNSt8_Rb_treeIhSt4pairIKhPFPN4Tins3PDUEPS1_jEESt10_Select1stIS8_ESt4lessIhESaIS8_EE8_M_beginEv W
_ZNSt8_Rb_treeIhSt4pairIKhPFPN4Tins3PDUEPS1_jEESt10_Select1stIS8_ESt4lessIhESaIS8_EE8_M_eraseEPSt13_Rb_tree_nodeIS8_E W
_ZNSt8_Rb_treeIhSt4pairIKhPFPN4Tins3PDUEPS1_jEESt10_Select1stIS8_ESt4lessIhESaIS8_EE8_S_rightEPSt18_Rb_tree_node_base W
_ZNSt8_Rb_treeIhSt4pairIKhPFPN4Tins3PDUEPS1_jEESt10_Select1stIS8_ESt4lessIhESaIS8_EE8_S_valueEPKSt13_Rb_tree_nodeIS8_E W
_ZNSt8_Rb_treeIhSt4pairIKhPFPN4Tins3PDUEPS1_jEESt10_Select1stIS8_ESt4lessIhESaIS8_EE8_S_valueEPKSt18_Rb_tree_node_base W
_ZNSt8_Rb_treeIhSt4pairIKhPFPN4Tins3PDUEPS1_jEESt10_Select1stIS8_ESt4lessIhESaIS8_EEC1Ev W
_ZNSt8_Rb_treeIhSt4pairIKhPFPN4Tins3PDUEPS1_jEESt10_Select1stIS8_ESt4lessIhESaIS8_EEC2Ev W
_ZNSt8_Rb_treeIhSt4pairIKhPFPN4Tins3PDUEPS1_jEESt10_Select1stIS8_ESt4lessIhESaIS8_EED1Ev W
_ZNSt8_Rb_treeIhSt4pairIKhPFPN4Tins3PDUEPS1_jEESt10_Select1stIS8_ESt4lessIhESaIS8_EED2Ev W
_ZNSt8_Rb_treeIN4Tins12PacketSender10SocketTypeESt4pairIKS2_iESt10_Select1stIS5_ESt4lessIS2_ESaIS5_EE10_M_insert_EPSt18_Rb_tree_node_baseSD_RKS5_ W
_ZNSt8_Rb_treeIN4Tins12PacketSender10SocketTypeESt4pairIKS2_iESt10_Select1stIS5_ESt4lessIS2_ESaIS5_EE11lower_boundERS4_ W
_ZNSt8_Rb_treeIN4Tins12PacketSender10SocketTypeESt4pairIKS2_iESt10_Select1stIS5_ESt4lessIS2_ESaIS5_EE11_M_get_nodeEv W
_ZNSt8_Rb_treeIN4Tins12PacketSender10SocketTypeESt4pairIKS2_iESt10_Select1stIS5_ESt4lessIS2_ESaIS5_EE11_M_leftmostEv W
_ZNSt8_Rb_treeIN4Tins12PacketSender10SocketTypeESt4pairIKS2_iESt10_Select1stIS5_ESt4lessIS2_ESaIS5_EE11_M_put_nodeEPSt13_Rb_tree_nodeIS5_E W
_ZNSt8_Rb_treeIN4Tins12PacketSender10SocketTypeESt4pairIKS2_iESt10_Select1stIS5_ESt4lessIS2_ESaIS5_EE12_M_rightmostEv W
_ZNSt8_Rb_treeIN4Tins12PacketSender10SocketTypeESt4pairIKS2_iESt10_Select1stIS5_ESt4lessIS2_ESaIS5_EE13_Rb_tree_implIS9_Lb0EE13_M_initializeEv W
_ZNSt8_Rb_treeIN4Tins12PacketSender10SocketTypeESt4pairIKS2_iESt10_Select1stIS5_ESt4lessIS2_ESaIS5_EE13_Rb_tree_implIS9_Lb0EEC1Ev W
_ZNSt8_Rb_treeIN4Tins12PacketSender10SocketTypeESt4pairIKS2_iESt10_Select1stIS5_ESt4lessIS2_ESaIS5_EE13_Rb_tree_implIS9_Lb0EEC2Ev W
_ZNSt8_Rb_treeIN4Tins12PacketSender10SocketTypeESt4pairIKS2_iESt10_Select1stIS5_ESt4lessIS2_ESaIS5_EE13_Rb_tree_implIS9_Lb0EED1Ev W
_ZNSt8_Rb_treeIN4Tins12PacketSender10SocketTypeESt4pairIKS2_iESt10_Select1stIS5_ESt4lessIS2_ESaIS5_EE13_Rb_tree_implIS9_Lb0EED2Ev W
_ZNSt8_Rb_treeIN4Tins12PacketSender10SocketTypeESt4pairIKS2_iESt10_Select1stIS5_ESt4lessIS2_ESaIS5_EE14_M_create_nodeERKS5_ W
_ZNSt8_Rb_treeIN4Tins12PacketSender10SocketTypeESt4pairIKS2_iESt10_Select1stIS5_ESt4lessIS2_ESaIS5_EE14_M_lower_boundEPSt13_Rb_tree_nodeIS5_ESE_RS4_ W
_ZNSt8_Rb_treeIN4Tins12PacketSender10SocketTypeESt4pairIKS2_iESt10_Select1stIS5_ESt4lessIS2_ESaIS5_EE15_M_destroy_nodeEPSt13_Rb_tree_nodeIS5_E W
_ZNSt8_Rb_treeIN4Tins12PacketSender10SocketTypeESt4pairIKS2_iESt10_Select1stIS5_ESt4lessIS2_ESaIS5_EE17_M_insert_unique_ESt23_Rb_tree_const_iteratorIS5_ERKS5_ W
_ZNSt8_Rb_treeIN4Tins12PacketSender10SocketTypeESt4pairIKS2_iESt10_Select1stIS5_ESt4lessIS2_ESaIS5_EE24_M_get_insert_unique_posERS4_ W
_ZNSt8_Rb_treeIN4Tins12PacketSender10SocketTypeESt4pairIKS2_iESt10_Select1stIS5_ESt4lessIS2_ESaIS5_EE29_M_get_insert_hint_unique_posESt23_Rb_tree_const_iteratorIS5_ERS4_ W
_ZNSt8_Rb_treeIN4Tins12PacketSender10SocketTypeESt4pairIKS2_iESt10_Select1stIS5_ESt4lessIS2_ESaIS5_EE3endEv W
_ZNSt8_Rb_treeIN4Tins12PacketSender10SocketTypeESt4pairIKS2_iESt10_Select1stIS5_ESt4lessIS2_ESaIS5_EE4findERS4_ W
_ZNSt8_Rb_treeIN4Tins12PacketSender10SocketTypeESt4pairIKS2_iESt10_Select1stIS5_ESt4lessIS2_ESaIS5_EE5beginEv W
_ZNSt8_Rb_treeIN4Tins12PacketSender10SocketTypeESt4pairIKS2_iESt10_Select1stIS5_ESt4lessIS2_ESaIS5_EE6_M_endEv W
_ZNSt8_Rb_treeIN4Tins12PacketSender10SocketTypeESt4pairIKS2_iESt10_Select1stIS5_ESt4lessIS2_ESaIS5_EE6_S_keyEPKSt13_Rb_tree_nodeIS5_E W
_ZNSt8_Rb_treeIN4Tins12PacketSender10SocketTypeESt4pairIKS2_iESt10_Select1stIS5_ESt4lessIS2_ESaIS5_EE6_S_keyEPKSt18_Rb_tree_node_base W
_ZNSt8_Rb_treeIN4Tins12PacketSender10SocketTypeESt4pairIKS2_iESt10_Select1stIS5_ESt4lessIS2_ESaIS5_EE7_S_leftEPSt18_Rb_tree_node_base W
_ZNSt8_Rb_treeIN4Tins12PacketSender10SocketTypeESt4pairIKS2_iESt10_Select1stIS5_ESt4lessIS2_ESaIS5_EE8_M_beginEv W
_ZNSt8_Rb_treeIN4Tins12PacketSender10SocketTypeESt4pairIKS2_iESt10_Select1stIS5_ESt4lessIS2_ESaIS5_EE8_M_eraseEPSt13_Rb_tree_nodeIS5_E W
_ZNSt8_Rb_treeIN4Tins12PacketSender10SocketTypeESt4pairIKS2_iESt10_Select1stIS5_ESt4lessIS2_ESaIS5_EE8_S_rightEPSt18_Rb_tree_node_base W
_ZNSt8_Rb_treeIN4Tins12PacketSender10SocketTypeESt4pairIKS2_iESt10_Select1stIS5_ESt4lessIS2_ESaIS5_EE8_S_valueEPKSt13_Rb_tree_nodeIS5_E W
_ZNSt8_Rb_treeIN4Tins12PacketSender10SocketTypeESt4pairIKS2_iESt10_Select1stIS5_ESt4lessIS2_ESaIS5_EE8_S_valueEPKSt18_Rb_tree_node_base W
_ZNSt8_Rb_treeIN4Tins12PacketSender10SocketTypeESt4pairIKS2_iESt10_Select1stIS5_ESt4lessIS2_ESaIS5_EEC1Ev W
_ZNSt8_Rb_treeIN4Tins12PacketSender10SocketTypeESt4pairIKS2_iESt10_Select1stIS5_ESt4lessIS2_ESaIS5_EEC2Ev W
_ZNSt8_Rb_treeIN4Tins12PacketSender10SocketTypeESt4pairIKS2_iESt10_Select1stIS5_ESt4lessIS2_ESaIS5_EED1Ev W
_ZNSt8_Rb_treeIN4Tins12PacketSender10SocketTypeESt4pairIKS2_iESt10_Select1stIS5_ESt4lessIS2_ESaIS5_EED2Ev W
_ZNSt8_Rb_treeIN4Tins3PDU7PDUTypeESt4pairIKS2_hESt10_Select1stIS5_ESt4lessIS2_ESaIS5_EE11_M_put_nodeEPSt13_Rb_tree_nodeIS5_E W
_ZNSt8_Rb_treeIN4Tins3PDU7PDUTypeESt4pairIKS2_hESt10_Select1stIS5_ESt4lessIS2_ESaIS5_EE13_Rb_tree_implIS9_Lb0EE13_M_initializeEv W
_ZNSt8_Rb_treeIN4Tins3PDU7PDUTypeESt4pairIKS2_hESt10_Select1stIS5_ESt4lessIS2_ESaIS5_EE13_Rb_tree_implIS9_Lb0EEC1Ev W
_ZNSt8_Rb_treeIN4Tins3PDU7PDUTypeESt4pairIKS2_hESt10_Select1stIS5_ESt4lessIS2_ESaIS5_EE13_Rb_tree_implIS9_Lb0EEC2Ev W
_ZNSt8_Rb_treeIN4Tins3PDU7PDUTypeESt4pairIKS2_hESt10_Select1stIS5_ESt4lessIS2_ESaIS5_EE13_Rb_tree_implIS9_Lb0EED1Ev W
_ZNSt8_Rb_treeIN4Tins3PDU7PDUTypeESt4pairIKS2_hESt10_Select1stIS5_ESt4lessIS2_ESaIS5_EE13_Rb_tree_implIS9_Lb0EED2Ev W
_ZNSt8_Rb_treeIN4Tins3PDU7PDUTypeESt4pairIKS2_hESt10_Select1stIS5_ESt4lessIS2_ESaIS5_EE14_M_lower_boundEPSt13_Rb_tree_nodeIS5_ESE_RS4_ W
_ZNSt8_Rb_treeIN4Tins3PDU7PDUTypeESt4pairIKS2_hESt10_Select1stIS5_ESt4lessIS2_ESaIS5_EE15_M_destroy_nodeEPSt13_Rb_tree_nodeIS5_E W
_ZNSt8_Rb_treeIN4Tins3PDU7PDUTypeESt4pairIKS2_hESt10_Select1stIS5_ESt4lessIS2_ESaIS5_EE3endEv W
_ZNSt8_Rb_treeIN4Tins3PDU7PDUTypeESt4pairIKS2_hESt10_Select1stIS5_ESt4lessIS2_ESaIS5_EE4findERS4_ W
_ZNSt8_Rb_treeIN4Tins3PDU7PDUTypeESt4pairIKS2_hESt10_Select1stIS5_ESt4lessIS2_ESaIS5_EE6_M_endEv W
_ZNSt8_Rb_treeIN4Tins3PDU7PDUTypeESt4pairIKS2_hESt10_Select1stIS5_ESt4lessIS2_ESaIS5_EE6_S_keyEPKSt13_Rb_tree_nodeIS5_E W
_ZNSt8_Rb_treeIN4Tins3PDU7PDUTypeESt4pairIKS2_hESt10_Select1stIS5_ESt4lessIS2_ESaIS5_EE6_S_keyEPKSt18_Rb_tree_node_base W
_ZNSt8_Rb_treeIN4Tins3PDU7PDUTypeESt4pairIKS2_hESt10_Select1stIS5_ESt4lessIS2_ESaIS5_EE7_S_leftEPKSt18_Rb_tree_node_base W
_ZNSt8_Rb_treeIN4Tins3PDU7PDUTypeESt4pairIKS2_hESt10_Select1stIS5_ESt4lessIS2_ESaIS5_EE7_S_leftEPSt18_Rb_tree_node_base W
_ZNSt8_Rb_treeIN4Tins3PDU7PDUTypeESt4pairIKS2_hESt10_Select1stIS5_ESt4lessIS2_ESaIS5_EE8_M_beginEv W
_ZNSt8_Rb_treeIN4Tins3PDU7PDUTypeESt4pairIKS2_hESt10_Select1stIS5_ESt4lessIS2_ESaIS5_EE8_M_eraseEPSt13_Rb_tree_nodeIS5_E W
_ZNSt8_Rb_treeIN4Tins3PDU7PDUTypeESt4pairIKS2_hESt10_Select1stIS5_ESt4lessIS2_ESaIS5_EE8_S_rightEPKSt18_Rb_tree_node_base W
_ZNSt8_Rb_treeIN4Tins3PDU7PDUTypeESt4pairIKS2_hESt10_Select1stIS5_ESt4lessIS2_ESaIS5_EE8_S_rightEPSt18_Rb_tree_node_base W
_ZNSt8_Rb_treeIN4Tins3PDU7PDUTypeESt4pairIKS2_hESt10_Select1stIS5_ESt4lessIS2_ESaIS5_EE8_S_valueEPKSt13_Rb_tree_nodeIS5_E W
_ZNSt8_Rb_treeIN4Tins3PDU7PDUTypeESt4pairIKS2_hESt10_Select1stIS5_ESt4lessIS2_ESaIS5_EE8_S_valueEPKSt18_Rb_tree_node_base W
_ZNSt8_Rb_treeIN4Tins3PDU7PDUTypeESt4pairIKS2_hESt10_Select1stIS5_ESt4lessIS2_ESaIS5_EEC1Ev W
_ZNSt8_Rb_treeIN4Tins3PDU7PDUTypeESt4pairIKS2_hESt10_Select1stIS5_ESt4lessIS2_ESaIS5_EEC2Ev W
_ZNSt8_Rb_treeIN4Tins3PDU7PDUTypeESt4pairIKS2_hESt10_Select1stIS5_ESt4lessIS2_ESaIS5_EED1Ev W
_ZNSt8_Rb_treeIN4Tins3PDU7PDUTypeESt4pairIKS2_hESt10_Select1stIS5_ESt4lessIS2_ESaIS5_EED2Ev W
_ZNSt8_Rb_treeIN4Tins3PDU7PDUTypeESt4pairIKS2_tESt10_Select1stIS5_ESt4lessIS2_ESaIS5_EE11_M_put_nodeEPSt13_Rb_tree_nodeIS5_E W
_ZNSt8_Rb_treeIN4Tins3PDU7PDUTypeESt4pairIKS2_tESt10_Select1stIS5_ESt4lessIS2_ESaIS5_EE13_Rb_tree_implIS9_Lb0EE13_M_initializeEv W
_ZNSt8_Rb_treeIN4Tins3PDU7PDUTypeESt4pairIKS2_tESt10_Select1stIS5_ESt4lessIS2_ESaIS5_EE13_Rb_tree_implIS9_Lb0EEC1Ev W
_ZNSt8_Rb_treeIN4Tins3PDU7PDUTypeESt4pairIKS2_tESt10_Select1stIS5_ESt4lessIS2_ESaIS5_EE13_Rb_tree_implIS9_Lb0EEC2Ev W
_ZNSt8_Rb_treeIN4Tins3PDU7PDUTypeESt4pairIKS2_tESt10_Select1stIS5_ESt4lessIS2_ESaIS5_EE13_Rb_tree_implIS9_Lb0EED1Ev W
_ZNSt8_Rb_treeIN4Tins3PDU7PDUTypeESt4pairIKS2_tESt10_Select1stIS5_ESt4lessIS2_ESaIS5_EE13_Rb_tree_implIS9_Lb0EED2Ev W
_ZNSt8_Rb_treeIN4Tins3PDU7PDUTypeESt4pairIKS2_tESt10_Select1stIS5_ESt4lessIS2_ESaIS5_EE14_M_lower_boundEPSt13_Rb_tree_nodeIS5_ESE_RS4_ W
_ZNSt8_Rb_treeIN4Tins3PDU7PDUTypeESt4pairIKS2_tESt10_Select1stIS5_ESt4lessIS2_ESaIS5_EE15_M_destroy_nodeEPSt13_Rb_tree_nodeIS5_E W
_ZNSt8_Rb_treeIN4Tins3PDU7PDUTypeESt4pairIKS2_tESt10_Select1stIS5_ESt4lessIS2_ESaIS5_EE3endEv W
_ZNSt8_Rb_treeIN4Tins3PDU7PDUTypeESt4pairIKS2_tESt10_Select1stIS5_ESt4lessIS2_ESaIS5_EE4findERS4_ W
_ZNSt8_Rb_treeIN4Tins3PDU7PDUTypeESt4pairIKS2_tESt10_Select1stIS5_ESt4lessIS2_ESaIS5_EE6_M_endEv W
_ZNSt8_Rb_treeIN4Tins3PDU7PDUTypeESt4pairIKS2_tESt10_Select1stIS5_ESt4lessIS2_ESaIS5_EE6_S_keyEPKSt13_Rb_tree_nodeIS5_E W
_ZNSt8_Rb_treeIN4Tins3PDU7PDUTypeESt4pairIKS2_tESt10_Select1stIS5_ESt4lessIS2_ESaIS5_EE6_S_keyEPKSt18_Rb_tree_node_base W
_ZNSt8_Rb_treeIN4Tins3PDU7PDUTypeESt4pairIKS2_tESt10_Select1stIS5_ESt4lessIS2_ESaIS5_EE7_S_leftEPKSt18_Rb_tree_node_base W
_ZNSt8_Rb_treeIN4Tins3PDU7PDUTypeESt4pairIKS2_tESt10_Select1stIS5_ESt4lessIS2_ESaIS5_EE7_S_leftEPSt18_Rb_tree_node_base W
_ZNSt8_Rb_treeIN4Tins3PDU7PDUTypeESt4pairIKS2_tESt10_Select1stIS5_ESt4lessIS2_ESaIS5_EE8_M_beginEv W
_ZNSt8_Rb_treeIN4Tins3PDU7PDUTypeESt4pairIKS2_tESt10_Select1stIS5_ESt4lessIS2_ESaIS5_EE8_M_eraseEPSt13_Rb_tree_nodeIS5_E W
_ZNSt8_Rb_treeIN4Tins3PDU7PDUTypeESt4pairIKS2_tESt10_Select1stIS5_ESt4lessIS2_ESaIS5_EE8_S_rightEPKSt18_Rb_tree_node_base W
_ZNSt8_Rb_treeIN4Tins3PDU7PDUTypeESt4pairIKS2_tESt10_Select1stIS5_ESt4lessIS2_ESaIS5_EE8_S_rightEPSt18_Rb_tree_node_base W
_ZNSt8_Rb_treeIN4Tins3PDU7PDUTypeESt4pairIKS2_tESt10_Select1stIS5_ESt4lessIS2_ESaIS5_EE8_S_valueEPKSt13_Rb_tree_nodeIS5_E W
_ZNSt8_Rb_treeIN4Tins3PDU7PDUTypeESt4pairIKS2_tESt10_Select1stIS5_ESt4lessIS2_ESaIS5_EE8_S_valueEPKSt18_Rb_tree_node_base W
_ZNSt8_Rb_treeIN4Tins3PDU7PDUTypeESt4pairIKS2_tESt10_Select1stIS5_ESt4lessIS2_ESaIS5_EEC1Ev W
_ZNSt8_Rb_treeIN4Tins3PDU7PDUTypeESt4pairIKS2_tESt10_Select1stIS5_ESt4lessIS2_ESaIS5_EEC2Ev W
_ZNSt8_Rb_treeIN4Tins3PDU7PDUTypeESt4pairIKS2_tESt10_Select1stIS5_ESt4lessIS2_ESaIS5_EED1Ev W
_ZNSt8_Rb_treeIN4Tins3PDU7PDUTypeESt4pairIKS2_tESt10_Select1stIS5_ESt4lessIS2_ESaIS5_EED2Ev W
_ZNSt8_Rb_treeISsSsSt9_IdentityISsESt4lessISsESaISsEE10_M_insert_EPSt18_Rb_tree_node_baseS7_RKSs W
_ZNSt8_Rb_treeISsSsSt9_IdentityISsESt4lessISsESaISsEE11_M_get_nodeEv W
_ZNSt8_Rb_treeISsSsSt9_IdentityISsESt4lessISsESaISsEE11_M_put_nodeEPSt13_Rb_tree_nodeISsE W
_ZNSt8_Rb_treeISsSsSt9_IdentityISsESt4lessISsESaISsEE13_Rb_tree_implIS3_Lb0EE13_M_initializeEv W
_ZNSt8_Rb_treeISsSsSt9_IdentityISsESt4lessISsESaISsEE13_Rb_tree_implIS3_Lb0EEC1Ev W
_ZNSt8_Rb_treeISsSsSt9_IdentityISsESt4lessISsESaISsEE13_Rb_tree_implIS3_Lb0EEC2Ev W
_ZNSt8_Rb_treeISsSsSt9_IdentityISsESt4lessISsESaISsEE13_Rb_tree_implIS3_Lb0EED1Ev W
_ZNSt8_Rb_treeISsSsSt9_IdentityISsESt4lessISsESaISsEE13_Rb_tree_implIS3_Lb0EED2Ev W
_ZNSt8_Rb_treeISsSsSt9_IdentityISsESt4lessISsESaISsEE14_M_create_nodeERKSs W
_ZNSt8_Rb_treeISsSsSt9_IdentityISsESt4lessISsESaISsEE15_M_destroy_nodeEPSt13_Rb_tree_nodeISsE W
_ZNSt8_Rb_treeISsSsSt9_IdentityISsESt4lessISsESaISsEE16_M_insert_uniqueERKSs W
_ZNSt8_Rb_treeISsSsSt9_IdentityISsESt4lessISsESaISsEE24_M_get_insert_unique_posERKSs W
_ZNSt8_Rb_treeISsSsSt9_IdentityISsESt4lessISsESaISsEE5beginEv W
_ZNSt8_Rb_treeISsSsSt9_IdentityISsESt4lessISsESaISsEE6_M_endEv W
_ZNSt8_Rb_treeISsSsSt9_IdentityISsESt4lessISsESaISsEE6_S_keyEPKSt13_Rb_tree_nodeISsE W
_ZNSt8_Rb_treeISsSsSt9_IdentityISsESt4lessISsESaISsEE6_S_keyEPKSt18_Rb_tree_node_base W
_ZNSt8_Rb_treeISsSsSt9_IdentityISsESt4lessISsESaISsEE7_S_leftEPSt18_Rb_tree_node_base W
_ZNSt8_Rb_treeISsSsSt9_IdentityISsESt4lessISsESaISsEE8_M_beginEv W
_ZNSt8_Rb_treeISsSsSt9_IdentityISsESt4lessISsESaISsEE8_M_eraseEPSt13_Rb_tree_nodeISsE W
_ZNSt8_Rb_treeISsSsSt9_IdentityISsESt4lessISsESaISsEE8_S_rightEPSt18_Rb_tree_node_base W
_ZNSt8_Rb_treeISsSsSt9_IdentityISsESt4lessISsESaISsEE8_S_valueEPKSt13_Rb_tree_nodeISsE W
_ZNSt8_Rb_treeISsSsSt9_IdentityISsESt4lessISsESaISsEE8_S_valueEPKSt18_Rb_tree_node_base W
_ZNSt8_Rb_treeISsSsSt9_IdentityISsESt4lessISsESaISsEEC1Ev W
_ZNSt8_Rb_treeISsSsSt9_IdentityISsESt4lessISsESaISsEEC2Ev W
_ZNSt8_Rb_treeISsSsSt9_IdentityISsESt4lessISsESaISsEED1Ev W
_ZNSt8_Rb_treeISsSsSt9_IdentityISsESt4lessISsESaISsEED2Ev W
_ZNSt8_Rb_treeISt4pairItS0_IN4Tins11IPv4AddressES2_EES0_IKS4_NS1_9Internals10IPv4StreamEESt10_Select1stIS8_ESt4lessIS4_ESaIS8_EE10_M_insert_EPSt18_Rb_tree_node_baseSG_RKS8_ W
_ZNSt8_Rb_treeISt4pairItS0_IN4Tins11IPv4AddressES2_EES0_IKS4_NS1_9Internals10IPv4StreamEESt10_Select1stIS8_ESt4lessIS4_ESaIS8_EE11equal_rangeERS5_ W
_ZNSt8_Rb_treeISt4pairItS0_IN4Tins11IPv4AddressES2_EES0_IKS4_NS1_9Internals10IPv4StreamEESt10_Select1stIS8_ESt4lessIS4_ESaIS8_EE11lower_boundERS5_ W
_ZNSt8_Rb_treeISt4pairItS0_IN4Tins11IPv4AddressES2_EES0_IKS4_NS1_9Internals10IPv4StreamEESt10_Select1stIS8_ESt4lessIS4_ESaIS8_EE11_M_get_nodeEv W
_ZNSt8_Rb_treeISt4pairItS0_IN4Tins11IPv4AddressES2_EES0_IKS4_NS1_9Internals10IPv4StreamEESt10_Select1stIS8_ESt4lessIS4_ESaIS8_EE11_M_leftmostEv W
_ZNSt8_Rb_treeISt4pairItS0_IN4Tins11IPv4AddressES2_EES0_IKS4_NS1_9Internals10IPv4StreamEESt10_Select1stIS8_ESt4lessIS4_ESaIS8_EE11_M_put_nodeEPSt13_Rb_tree_nodeIS8_E W
_ZNSt8_Rb_treeISt4pairItS0_IN4Tins11IPv4AddressES2_EES0_IKS4_NS1_9Internals10IPv4StreamEESt10_Select1stIS8_ESt4lessIS4_ESaIS8_EE12_M_erase_auxESt23_Rb_tree_const_iteratorIS8_E W
_ZNSt8_Rb_treeISt4pairItS0_IN4Tins11IPv4AddressES2_EES0_IKS4_NS1_9Internals10IPv4StreamEESt10_Select1stIS8_ESt4lessIS4_ESaIS8_EE12_M_erase_auxESt23_Rb_tree_const_iteratorIS8_ESG_ W
_ZNSt8_Rb_treeISt4pairItS0_IN4Tins11IPv4AddressES2_EES0_IKS4_NS1_9Internals10IPv4StreamEESt10_Select1stIS8_ESt4lessIS4_ESaIS8_EE12_M_rightmostEv W
_ZNSt8_Rb_treeISt4pairItS0_IN4Tins11IPv4AddressES2_EES0_IKS4_NS1_9Internals10IPv4StreamEESt10_Select1stIS8_ESt4lessIS4_ESaIS8_EE13_Rb_tree_implISC_Lb0EE13_M_initializeEv W
_ZNSt8_Rb_treeISt4pairItS0_IN4Tins11IPv4AddressES2_EES0_IKS4_NS1_9Internals10IPv4StreamEESt10_Select1stIS8_ESt4lessIS4_ESaIS8_EE13_Rb_tree_implISC_Lb0EEC1Ev W
_ZNSt8_Rb_treeISt4pairItS0_IN4Tins11IPv4AddressES2_EES0_IKS4_NS1_9Internals10IPv4StreamEESt10_Select1stIS8_ESt4lessIS4_ESaIS8_EE13_Rb_tree_implISC_Lb0EEC2Ev W
_ZNSt8_Rb_treeISt4pairItS0_IN4Tins11IPv4AddressES2_EES0_IKS4_NS1_9Internals10IPv4StreamEESt10_Select1stIS8_ESt4lessIS4_ESaIS8_EE14_M_create_nodeERKS8_ W
_ZNSt8_Rb_treeISt4pairItS0_IN4Tins11IPv4AddressES2_EES0_IKS4_NS1_9Internals10IPv4StreamEESt10_Select1stIS8_ESt4lessIS4_ESaIS8_EE14_M_lower_boundEPSt13_Rb_tree_nodeIS8_ESH_RS5_ W
_ZNSt8_Rb_treeISt4pairItS0_IN4Tins11IPv4AddressES2_EES0_IKS4_NS1_9Internals10IPv4StreamEESt10_Select1stIS8_ESt4lessIS4_ESaIS8_EE14_M_upper_boundEPSt13_Rb_tree_nodeIS8_ESH_RS5_ W
_ZNSt8_Rb_treeISt4pairItS0_IN4Tins11IPv4AddressES2_EES0_IKS4_NS1_9Internals10IPv4StreamEESt10_Select1stIS8_ESt4lessIS4_ESaIS8_EE15_M_destroy_nodeEPSt13_Rb_tree_nodeIS8_E W
_ZNSt8_Rb_treeISt4pairItS0_IN4Tins11IPv4AddressES2_EES0_IKS4_NS1_9Internals10IPv4StreamEESt10_Select1stIS8_ESt4lessIS4_ESaIS8_EE17_M_insert_unique_ESt23_Rb_tree_const_iteratorIS8_ERKS8_ W
_ZNSt8_Rb_treeISt4pairItS0_IN4Tins11IPv4AddressES2_EES0_IKS4_NS1_9Internals10IPv4StreamEESt10_Select1stIS8_ESt4lessIS4_ESaIS8_EE24_M_get_insert_unique_posERS5_ W
_ZNSt8_Rb_treeISt4pairItS0_IN4Tins11IPv4AddressES2_EES0_IKS4_NS1_9Internals10IPv4StreamEESt10_Select1stIS8_ESt4lessIS4_ESaIS8_EE29_M_get_insert_hint_unique_posESt23_Rb_tree_const_iteratorIS8_ERS5_ W
_ZNSt8_Rb_treeISt4pairItS0_IN4Tins11IPv4AddressES2_EES0_IKS4_NS1_9Internals10IPv4StreamEESt10_Select1stIS8_ESt4lessIS4_ESaIS8_EE3endEv W
_ZNSt8_Rb_treeISt4pairItS0_IN4Tins11IPv4AddressES2_EES0_IKS4_NS1_9Internals10IPv4StreamEESt10_Select1stIS8_ESt4lessIS4_ESaIS8_EE5beginEv W
_ZNSt8_Rb_treeISt4pairItS0_IN4Tins11IPv4AddressES2_EES0_IKS4_NS1_9Internals10IPv4StreamEESt10_Select1stIS8_ESt4lessIS4_ESaIS8_EE5clearEv W
_ZNSt8_Rb_treeISt4pairItS0_IN4Tins11IPv4AddressES2_EES0_IKS4_NS1_9Internals10IPv4StreamEESt10_Select1stIS8_ESt4lessIS4_ESaIS8_EE5eraseERS5_ W
_ZNSt8_Rb_treeISt4pairItS0_IN4Tins11IPv4AddressES2_EES0_IKS4_NS1_9Internals10IPv4StreamEESt10_Select1stIS8_ESt4lessIS4_ESaIS8_EE5eraseESt17_Rb_tree_iteratorIS8_ESG_ W
_ZNSt8_Rb_treeISt4pairItS0_IN4Tins11IPv4AddressES2_EES0_IKS4_NS1_9Internals10IPv4StreamEESt10_Select1stIS8_ESt4lessIS4_ESaIS8_EE5eraseESt23_Rb_tree_const_iteratorIS8_E W
_ZNSt8_Rb_treeISt4pairItS0_IN4Tins11IPv4AddressES2_EES0_IKS4_NS1_9Internals10IPv4StreamEESt10_Select1stIS8_ESt4lessIS4_ESaIS8_EE6_M_endEv W
_ZNSt8_Rb_treeISt4pairItS0_IN4Tins11IPv4AddressES2_EES0_IKS4_NS1_9Internals10IPv4StreamEESt10_Select1stIS8_ESt4lessIS4_ESaIS8_EE6_S_keyEPKSt13_Rb_tree_nodeIS8_E W
_ZNSt8_Rb_treeISt4pairItS0_IN4Tins11IPv4AddressES2_EES0_IKS4_NS1_9Internals10IPv4StreamEESt10_Select1stIS8_ESt4lessIS4_ESaIS8_EE6_S_keyEPKSt18_Rb_tree_node_base W
_ZNSt8_Rb_treeISt4pairItS0_IN4Tins11IPv4AddressES2_EES0_IKS4_NS1_9Internals10IPv4StreamEESt10_Select1stIS8_ESt4lessIS4_ESaIS8_EE7_M_rootEv W
_ZNSt8_Rb_treeISt4pairItS0_IN4Tins11IPv4AddressES2_EES0_IKS4_NS1_9Internals10IPv4StreamEESt10_Select1stIS8_ESt4lessIS4_ESaIS8_EE7_S_leftEPSt18_Rb_tree_node_base W
_ZNSt8_Rb_treeISt4pairItS0_IN4Tins11IPv4AddressES2_EES0_IKS4_NS1_9Internals10IPv4StreamEESt10_Select1stIS8_ESt4lessIS4_ESaIS8_EE8_M_beginEv W
_ZNSt8_Rb_treeISt4pairItS0_IN4Tins11IPv4AddressES2_EES0_IKS4_NS1_9Internals10IPv4StreamEESt10_Select1stIS8_ESt4lessIS4_ESaIS8_EE8_M_eraseEPSt13_Rb_tree_nodeIS8_E W
_ZNSt8_Rb_treeISt4pairItS0_IN4Tins11IPv4AddressES2_EES0_IKS4_NS1_9Internals10IPv4StreamEESt10_Select1stIS8_ESt4lessIS4_ESaIS8_EE8_S_rightEPSt18_Rb_tree_node_base W
_ZNSt8_Rb_treeISt4pairItS0_IN4Tins11IPv4AddressES2_EES0_IKS4_NS1_9Internals10IPv4StreamEESt10_Select1stIS8_ESt4lessIS4_ESaIS8_EE8_S_valueEPKSt13_Rb_tree_nodeIS8_E W
_ZNSt8_Rb_treeISt4pairItS0_IN4Tins11IPv4AddressES2_EES0_IKS4_NS1_9Internals10IPv4StreamEESt10_Select1stIS8_ESt4lessIS4_ESaIS8_EE8_S_valueEPKSt18_Rb_tree_node_base W
_ZNSt8_Rb_treeISt4pairItS0_IN4Tins11IPv4AddressES2_EES0_IKS4_NS1_9Internals10IPv4StreamEESt10_Select1stIS8_ESt4lessIS4_ESaIS8_EEC1Ev W
_ZNSt8_Rb_treeISt4pairItS0_IN4Tins11IPv4AddressES2_EES0_IKS4_NS1_9Internals10IPv4StreamEESt10_Select1stIS8_ESt4lessIS4_ESaIS8_EEC2Ev W
_ZNSt8_Rb_treeItSt4pairIKtPFPN4Tins3PDUEPKhjEESt10_Select1stIS9_ESt4lessItESaIS9_EE11_M_put_nodeEPSt13_Rb_tree_nodeIS9_E W
_ZNSt8_Rb_treeItSt4pairIKtPFPN4Tins3PDUEPKhjEESt10_Select1stIS9_ESt4lessItESaIS9_EE13_Rb_tree_implISD_Lb0EE13_M_initializeEv W
_ZNSt8_Rb_treeItSt4pairIKtPFPN4Tins3PDUEPKhjEESt10_Select1stIS9_ESt4lessItESaIS9_EE13_Rb_tree_implISD_Lb0EEC1Ev W
_ZNSt8_Rb_treeItSt4pairIKtPFPN4Tins3PDUEPKhjEESt10_Select1stIS9_ESt4lessItESaIS9_EE13_Rb_tree_implISD_Lb0EEC2Ev W
_ZNSt8_Rb_treeItSt4pairIKtPFPN4Tins3PDUEPKhjEESt10_Select1stIS9_ESt4lessItESaIS9_EE13_Rb_tree_implISD_Lb0EED1Ev W
_ZNSt8_Rb_treeItSt4pairIKtPFPN4Tins3PDUEPKhjEESt10_Select1stIS9_ESt4lessItESaIS9_EE13_Rb_tree_implISD_Lb0EED2Ev W
_ZNSt8_Rb_treeItSt4pairIKtPFPN4Tins3PDUEPKhjEESt10_Select1stIS9_ESt4lessItESaIS9_EE14_M_lower_boundEPSt13_Rb_tree_nodeIS9_ESI_RS1_ W
_ZNSt8_Rb_treeItSt4pairIKtPFPN4Tins3PDUEPKhjEESt10_Select1stIS9_ESt4lessItESaIS9_EE15_M_destroy_nodeEPSt13_Rb_tree_nodeIS9_E W
_ZNSt8_Rb_treeItSt4pairIKtPFPN4Tins3PDUEPKhjEESt10_Select1stIS9_ESt4lessItESaIS9_EE3endEv W
_ZNSt8_Rb_treeItSt4pairIKtPFPN4Tins3PDUEPKhjEESt10_Select1stIS9_ESt4lessItESaIS9_EE4findERS1_ W
_ZNSt8_Rb_treeItSt4pairIKtPFPN4Tins3PDUEPKhjEESt10_Select1stIS9_ESt4lessItESaIS9_EE6_M_endEv W
_ZNSt8_Rb_treeItSt4pairIKtPFPN4Tins3PDUEPKhjEESt10_Select1stIS9_ESt4lessItESaIS9_EE6_S_keyEPKSt13_Rb_tree_nodeIS9_E W
_ZNSt8_Rb_treeItSt4pairIKtPFPN4Tins3PDUEPKhjEESt10_Select1stIS9_ESt4lessItESaIS9_EE6_S_keyEPKSt18_Rb_tree_node_base W
_ZNSt8_Rb_treeItSt4pairIKtPFPN4Tins3PDUEPKhjEESt10_Select1stIS9_ESt4lessItESaIS9_EE7_S_leftEPSt18_Rb_tree_node_base W
_ZNSt8_Rb_treeItSt4pairIKtPFPN4Tins3PDUEPKhjEESt10_Select1stIS9_ESt4lessItESaIS9_EE8_M_beginEv W
_ZNSt8_Rb_treeItSt4pairIKtPFPN4Tins3PDUEPKhjEESt10_Select1stIS9_ESt4lessItESaIS9_EE8_M_eraseEPSt13_Rb_tree_nodeIS9_E W
_ZNSt8_Rb_treeItSt4pairIKtPFPN4Tins3PDUEPKhjEESt10_Select1stIS9_ESt4lessItESaIS9_EE8_S_rightEPSt18_Rb_tree_node_base W
_ZNSt8_Rb_treeItSt4pairIKtPFPN4Tins3PDUEPKhjEESt10_Select1stIS9_ESt4lessItESaIS9_EE8_S_valueEPKSt13_Rb_tree_nodeIS9_E W
_ZNSt8_Rb_treeItSt4pairIKtPFPN4Tins3PDUEPKhjEESt10_Select1stIS9_ESt4lessItESaIS9_EE8_S_valueEPKSt18_Rb_tree_node_base W
_ZNSt8_Rb_treeItSt4pairIKtPFPN4Tins3PDUEPKhjEESt10_Select1stIS9_ESt4lessItESaIS9_EEC1Ev W
_ZNSt8_Rb_treeItSt4pairIKtPFPN4Tins3PDUEPKhjEESt10_Select1stIS9_ESt4lessItESaIS9_EEC2Ev W
_ZNSt8_Rb_treeItSt4pairIKtPFPN4Tins3PDUEPKhjEESt10_Select1stIS9_ESt4lessItESaIS9_EED1Ev W
_ZNSt8_Rb_treeItSt4pairIKtPFPN4Tins3PDUEPKhjEESt10_Select1stIS9_ESt4lessItESaIS9_EED2Ev W
_ZNSt9exceptionC1Ev W
_ZNSt9exceptionC2Ev W
_ZnwmPv W
_ZSt10_ConstructIN4Tins11IPv4AddressES1_EvPT_RKT0_ W
_ZSt10_ConstructIN4Tins11IPv6AddressES1_EvPT_RKT0_ W
_ZSt10_ConstructIN4Tins13ICMPExtensionES1_EvPT_RKT0_ W
_ZSt10_ConstructIN4Tins16NetworkInterface10IPv6PrefixES2_EvPT_RKT0_ W
_ZSt10_ConstructIN4Tins16NetworkInterfaceES1_EvPT_RKT0_ W
_ZSt10_ConstructIN4Tins3DNS5queryES2_EvPT_RKT0_ W
_ZSt10_ConstructIN4Tins3DNS8resourceES2_EvPT_RKT0_ W
_ZSt10_ConstructIN4Tins5Utils10RouteEntryES2_EvPT_RKT0_ W
_ZSt10_ConstructIN4Tins5Utils11Route6EntryES2_EvPT_RKT0_ W
_ZSt10_ConstructIN4Tins6ICMPv624multicast_address_recordES2_EvPT_RKT0_ W
_ZSt10_ConstructIN4Tins9Internals12IPv4FragmentES2_EvPT_RKT0_ W
_ZSt10_ConstructIN4Tins9PDUOptionIhNS0_3TCPEEES3_EvPT_RKT0_ W
_ZSt10_ConstructIN4Tins9PDUOptionIhNS0_4DHCPEEES3_EvPT_RKT0_ W
_ZSt10_ConstructIN4Tins9PDUOptionIhNS0_4IPv6EEES3_EvPT_RKT0_ W
_ZSt10_ConstructIN4Tins9PDUOptionIhNS0_6ICMPv6EEES3_EvPT_RKT0_ W
_ZSt10_ConstructIN4Tins9PDUOptionINS0_2IP17option_identifierES2_EES4_EvPT_RKT0_ W
_ZSt10_ConstructIN4Tins9PDUOptionINS0_5PPPoE8TagTypesES2_EES4_EvPT_RKT0_ W
_ZSt10_ConstructIN4Tins9PDUOptionItNS0_6DHCPv6EEES3_EvPT_RKT0_ W
_ZSt10_ConstructISsSsEvPT_RKT0_ W
_ZSt10_ConstructISt4pairIhhES1_EvPT_RKT0_ W
_ZSt10_ConstructISt4pairIhSt6vectorIhSaIhEEES4_EvPT_RKT0_ W
_ZSt10_ConstructISt4pairIPjjES2_EvPT_RKT0_ W
_ZSt10_ConstructISt6vectorIhSaIhEES2_EvPT_RKT0_ W
_ZSt10__distanceIN9__gnu_cxx17__normal_iteratorIPcSsEEENSt15iterator_traitsIT_E15difference_typeES5_S5_St26random_access_iterator_tag W
_ZSt10__distanceIN9__gnu_cxx17__normal_iteratorIPhSt6vectorIhSaIhEEEEENSt15iterator_traitsIT_E15difference_typeES8_S8_St26random_access_iterator_tag W
_ZSt10__distanceIN9__gnu_cxx17__normal_iteratorIPKcSsEEENSt15iterator_traitsIT_E15difference_typeES6_S6_St26random_access_iterator_tag W
_ZSt10__distanceIN9__gnu_cxx17__normal_iteratorIPKhSt6vectorIhSaIhEEEEENSt15iterator_traitsIT_E15difference_typeES9_S9_St26random_access_iterator_tag W
_ZSt10__distanceIPhENSt15iterator_traitsIT_E15difference_typeES2_S2_St26random_access_iterator_tag W
_ZSt10__distanceIPKhENSt15iterator_traitsIT_E15difference_typeES3_S3_St26random_access_iterator_tag W
_ZSt10__fill_n_aImhEN9__gnu_cxx11__enable_ifIXsrSt9__is_byteIT0_E7__valueEPS3_E6__typeES5_T_RKS3_ W
_ZSt10__fill_n_aIPimiEN9__gnu_cxx11__enable_ifIXsrSt11__is_scalarIT1_E7__valueET_E6__typeES6_T0_RKS4_ W
_ZSt10__fill_n_aIPjmjEN9__gnu_cxx11__enable_ifIXsrSt11__is_scalarIT1_E7__valueET_E6__typeES6_T0_RKS4_ W
_ZSt10__fill_n_aIPtmtEN9__gnu_cxx11__enable_ifIXsrSt11__is_scalarIT1_E7__valueET_E6__typeES6_T0_RKS4_ W
_ZSt11__addressofIKSt4pairIKhPFPN4Tins3PDUEPS1_jEEEPT_RSA_ W
_ZSt11__addressofIKSt4pairIKN4Tins3PDU7PDUTypeEhEEPT_RS7_ W
_ZSt11__addressofIKSt4pairIKN4Tins3PDU7PDUTypeEtEEPT_RS7_ W
_ZSt11__addressofIKSt4pairIKtPFPN4Tins3PDUEPKhjEEEPT_RSB_ W
_ZSt11__addressofIN4Tins11IPv4AddressEEPT_RS2_ W
_ZSt11__addressofIN4Tins11IPv6AddressEEPT_RS2_ W
_ZSt11__addressofIN4Tins13ICMPExtensionEEPT_RS2_ W
_ZSt11__addressofIN4Tins16NetworkInterface10IPv6PrefixEEPT_RS3_ W
_ZSt11__addressofIN4Tins16NetworkInterfaceEEPT_RS2_ W
_ZSt11__addressofIN4Tins3DNS5queryEEPT_RS3_ W
_ZSt11__addressofIN4Tins3DNS8resourceEEPT_RS3_ W
_ZSt11__addressofIN4Tins5Utils10RouteEntryEEPT_RS3_ W
_ZSt11__addressofIN4Tins5Utils11Route6EntryEEPT_RS3_ W
_ZSt11__addressofIN4Tins6ICMPv624multicast_address_recordEEPT_RS3_ W
_ZSt11__addressofIN4Tins9Internals12IPv4FragmentEEPT_RS3_ W
_ZSt11__addressofIN4Tins9PDUOptionIhNS0_3TCPEEEEPT_RS4_ W
_ZSt11__addressofIN4Tins9PDUOptionIhNS0_4DHCPEEEEPT_RS4_ W
_ZSt11__addressofIN4Tins9PDUOptionIhNS0_4IPv6EEEEPT_RS4_ W
_ZSt11__addressofIN4Tins9PDUOptionIhNS0_6ICMPv6EEEEPT_RS4_ W
_ZSt11__addressofIN4Tins9PDUOptionINS0_2IP17option_identifierES2_EEEPT_RS5_ W
_ZSt11__addressofIN4Tins9PDUOptionINS0_5PPPoE8TagTypesES2_EEEPT_RS5_ W
_ZSt11__addressofIN4Tins9PDUOptionItNS0_6DHCPv6EEEEPT_RS4_ W
_ZSt11__addressofISsEPT_RS0_ W
_ZSt11__addressofISt4pairIhhEEPT_RS2_ W
_ZSt11__addressofISt4pairIhSt6vectorIhSaIhEEEEPT_RS5_ W
_ZSt11__addressofISt4pairIKhPFPN4Tins3PDUEPS1_jEEEPT_RS9_ W
_ZSt11__addressofISt4pairIKN4Tins12PacketSender10SocketTypeEiEEPT_RS6_ W
_ZSt11__addressofISt4pairIKN4Tins3PDU7PDUTypeEhEEPT_RS6_ W
_ZSt11__addressofISt4pairIKN4Tins3PDU7PDUTypeEtEEPT_RS6_ W
_ZSt11__addressofISt4pairIKS0_ItS0_IN4Tins11IPv4AddressES2_EENS1_9Internals10IPv4StreamEEEPT_RS9_ W
_ZSt11__addressofISt4pairIKtPFPN4Tins3PDUEPKhjEEEPT_RSA_ W
_ZSt11__addressofISt4pairIPjjEEPT_RS3_ W
_ZSt11__addressofISt6vectorIhSaIhEEEPT_RS3_ W
_ZSt11__equal_auxIPKhS1_EbT_S2_T0_ W
_ZSt12__miter_baseIN9__gnu_cxx17__normal_iteratorIPcSsEEENSt11_Miter_baseIT_E13iterator_typeES5_ W
_ZSt12__miter_baseIN9__gnu_cxx17__normal_iteratorIPKcSsEEENSt11_Miter_baseIT_E13iterator_typeES6_ W
_ZSt12__miter_baseIN9__gnu_cxx17__normal_iteratorIPKhSt6vectorIhSaIhEEEEENSt11_Miter_baseIT_E13iterator_typeES9_ W
_ZSt12__miter_baseIN9__gnu_cxx17__normal_iteratorIPKN4Tins11IPv6AddressESt6vectorIS3_SaIS3_EEEEENSt11_Miter_baseIT_E13iterator_typeESB_ W
_ZSt12__miter_baseIN9__gnu_cxx17__normal_iteratorIPKN4Tins13ICMPExtensionESt6vectorIS3_SaIS3_EEEEENSt11_Miter_baseIT_E13iterator_typeESB_ W
_ZSt12__miter_baseIN9__gnu_cxx17__normal_iteratorIPKN4Tins6ICMPv624multicast_address_recordESt6vectorIS4_SaIS4_EEEEENSt11_Miter_baseIT_E13iterator_typeESC_ W
_ZSt12__miter_baseIN9__gnu_cxx17__normal_iteratorIPKN4Tins9PDUOptionINS2_2IP17option_identifierES4_EESt6vectorIS6_SaIS6_EEEEENSt11_Miter_baseIT_E13iterator_typeESE_ W
_ZSt12__miter_baseIN9__gnu_cxx17__normal_iteratorIPKSt4pairIhSt6vectorIhSaIhEEES3_IS6_SaIS6_EEEEENSt11_Miter_baseIT_E13iterator_typeESD_ W
_ZSt12__miter_baseIN9__gnu_cxx17__normal_iteratorIPKSt6vectorIhSaIhEES2_IS4_SaIS4_EEEEENSt11_Miter_baseIT_E13iterator_typeESB_ W
_ZSt12__miter_baseIN9__gnu_cxx17__normal_iteratorIPN4Tins9PDUOptionIhNS2_3TCPEEESt6vectorIS5_SaIS5_EEEEENSt11_Miter_baseIT_E13iterator_typeESC_ W
_ZSt12__miter_baseIN9__gnu_cxx17__normal_iteratorIPN4Tins9PDUOptionIhNS2_4DHCPEEESt6vectorIS5_SaIS5_EEEEENSt11_Miter_baseIT_E13iterator_typeESC_ W
_ZSt12__miter_baseIN9__gnu_cxx17__normal_iteratorIPN4Tins9PDUOptionIhNS2_6ICMPv6EEESt6vectorIS5_SaIS5_EEEEENSt11_Miter_baseIT_E13iterator_typeESC_ W
_ZSt12__miter_baseIN9__gnu_cxx17__normal_iteratorIPN4Tins9PDUOptionINS2_2IP17option_identifierES4_EESt6vectorIS6_SaIS6_EEEEENSt11_Miter_baseIT_E13iterator_typeESD_ W
_ZSt12__miter_baseIN9__gnu_cxx17__normal_iteratorIPN4Tins9PDUOptionItNS2_6DHCPv6EEESt6vectorIS5_SaIS5_EEEEENSt11_Miter_baseIT_E13iterator_typeESC_ W
_ZSt12__miter_baseIPfENSt11_Miter_baseIT_E13iterator_typeES2_ W
_ZSt12__miter_baseIPhENSt11_Miter_baseIT_E13iterator_typeES2_ W
_ZSt12__miter_baseIPiENSt11_Miter_baseIT_E13iterator_typeES2_ W
_ZSt12__miter_baseIPKhENSt11_Miter_baseIT_E13iterator_typeES3_ W
_ZSt12__miter_baseIPN4Tins11IPv4AddressEENSt11_Miter_baseIT_E13iterator_typeES4_ W
_ZSt12__miter_baseIPN4Tins11IPv6AddressEENSt11_Miter_baseIT_E13iterator_typeES4_ W
_ZSt12__miter_baseIPN4Tins13ICMPExtensionEENSt11_Miter_baseIT_E13iterator_typeES4_ W
_ZSt12__miter_baseIPN4Tins16NetworkInterface10IPv6PrefixEENSt11_Miter_baseIT_E13iterator_typeES5_ W
_ZSt12__miter_baseIPN4Tins16NetworkInterfaceEENSt11_Miter_baseIT_E13iterator_typeES4_ W
_ZSt12__miter_baseIPN4Tins3DNS5queryEENSt11_Miter_baseIT_E13iterator_typeES5_ W
_ZSt12__miter_baseIPN4Tins3DNS8resourceEENSt11_Miter_baseIT_E13iterator_typeES5_ W
_ZSt12__miter_baseIPN4Tins5Utils10RouteEntryEENSt11_Miter_baseIT_E13iterator_typeES5_ W
_ZSt12__miter_baseIPN4Tins5Utils11Route6EntryEENSt11_Miter_baseIT_E13iterator_typeES5_ W
_ZSt12__miter_baseIPN4Tins6ICMPv624multicast_address_recordEENSt11_Miter_baseIT_E13iterator_typeES5_ W
_ZSt12__miter_baseIPN4Tins9Internals12IPv4FragmentEENSt11_Miter_baseIT_E13iterator_typeES5_ W
_ZSt12__miter_baseIPN4Tins9PDUOptionIhNS0_3TCPEEEENSt11_Miter_baseIT_E13iterator_typeES6_ W
_ZSt12__miter_baseIPN4Tins9PDUOptionIhNS0_4DHCPEEEENSt11_Miter_baseIT_E13iterator_typeES6_ W
_ZSt12__miter_baseIPN4Tins9PDUOptionIhNS0_4IPv6EEEENSt11_Miter_baseIT_E13iterator_typeES6_ W
_ZSt12__miter_baseIPN4Tins9PDUOptionIhNS0_6ICMPv6EEEENSt11_Miter_baseIT_E13iterator_typeES6_ W
_ZSt12__miter_baseIPN4Tins9PDUOptionINS0_2IP17option_identifierES2_EEENSt11_Miter_baseIT_E13iterator_typeES7_ W
_ZSt12__miter_baseIPN4Tins9PDUOptionINS0_5PPPoE8TagTypesES2_EEENSt11_Miter_baseIT_E13iterator_typeES7_ W
_ZSt12__miter_baseIPN4Tins9PDUOptionItNS0_6DHCPv6EEEENSt11_Miter_baseIT_E13iterator_typeES6_ W
_ZSt12__miter_baseIPSsENSt11_Miter_baseIT_E13iterator_typeES2_ W
_ZSt12__miter_baseIPSt4pairIhhEENSt11_Miter_baseIT_E13iterator_typeES4_ W
_ZSt12__miter_baseIPSt4pairIhSt6vectorIhSaIhEEEENSt11_Miter_baseIT_E13iterator_typeES7_ W
_ZSt12__miter_baseIPSt4pairIPjjEENSt11_Miter_baseIT_E13iterator_typeES5_ W
_ZSt12__miter_baseIPSt6vectorIhSaIhEEENSt11_Miter_baseIT_E13iterator_typeES5_ W
_ZSt12__niter_baseIN9__gnu_cxx17__normal_iteratorIPcSsEEENSt11_Niter_baseIT_E13iterator_typeES5_ W
_ZSt12__niter_baseIN9__gnu_cxx17__normal_iteratorIPhSt6vectorIhSaIhEEEEENSt11_Niter_baseIT_E13iterator_typeES8_ W
_ZSt12__niter_baseIN9__gnu_cxx17__normal_iteratorIPKcSsEEENSt11_Niter_baseIT_E13iterator_typeES6_ W
_ZSt12__niter_baseIN9__gnu_cxx17__normal_iteratorIPKhSt6vectorIhSaIhEEEEENSt11_Niter_baseIT_E13iterator_typeES9_ W
_ZSt12__niter_baseIN9__gnu_cxx17__normal_iteratorIPKN4Tins11IPv6AddressESt6vectorIS3_SaIS3_EEEEENSt11_Niter_baseIT_E13iterator_typeESB_ W
_ZSt12__niter_baseIN9__gnu_cxx17__normal_iteratorIPKN4Tins13ICMPExtensionESt6vectorIS3_SaIS3_EEEEENSt11_Niter_baseIT_E13iterator_typeESB_ W
_ZSt12__niter_baseIN9__gnu_cxx17__normal_iteratorIPKN4Tins6ICMPv624multicast_address_recordESt6vectorIS4_SaIS4_EEEEENSt11_Niter_baseIT_E13iterator_typeESC_ W
_ZSt12__niter_baseIN9__gnu_cxx17__normal_iteratorIPKN4Tins9PDUOptionINS2_2IP17option_identifierES4_EESt6vectorIS6_SaIS6_EEEEENSt11_Niter_baseIT_E13iterator_typeESE_ W
_ZSt12__niter_baseIN9__gnu_cxx17__normal_iteratorIPKSt4pairIhSt6vectorIhSaIhEEES3_IS6_SaIS6_EEEEENSt11_Niter_baseIT_E13iterator_typeESD_ W
_ZSt12__niter_baseIN9__gnu_cxx17__normal_iteratorIPKSt6vectorIhSaIhEES2_IS4_SaIS4_EEEEENSt11_Niter_baseIT_E13iterator_typeESB_ W
_ZSt12__niter_baseIN9__gnu_cxx17__normal_iteratorIPN4Tins11IPv6AddressESt6vectorIS3_SaIS3_EEEEENSt11_Niter_baseIT_E13iterator_typeESA_ W
_ZSt12__niter_baseIN9__gnu_cxx17__normal_iteratorIPN4Tins13ICMPExtensionESt6vectorIS3_SaIS3_EEEEENSt11_Niter_baseIT_E13iterator_typeESA_ W
_ZSt12__niter_baseIN9__gnu_cxx17__normal_iteratorIPN4Tins6ICMPv624multicast_address_recordESt6vectorIS4_SaIS4_EEEEENSt11_Niter_baseIT_E13iterator_typeESB_ W
_ZSt12__niter_baseIN9__gnu_cxx17__normal_iteratorIPN4Tins9PDUOptionIhNS2_3TCPEEESt6vectorIS5_SaIS5_EEEEENSt11_Niter_baseIT_E13iterator_typeESC_ W
_ZSt12__niter_baseIN9__gnu_cxx17__normal_iteratorIPN4Tins9PDUOptionIhNS2_4DHCPEEESt6vectorIS5_SaIS5_EEEEENSt11_Niter_baseIT_E13iterator_typeESC_ W
_ZSt12__niter_baseIN9__gnu_cxx17__normal_iteratorIPN4Tins9PDUOptionIhNS2_6ICMPv6EEESt6vectorIS5_SaIS5_EEEEENSt11_Niter_baseIT_E13iterator_typeESC_ W
_ZSt12__niter_baseIN9__gnu_cxx17__normal_iteratorIPN4Tins9PDUOptionINS2_2IP17option_identifierES4_EESt6vectorIS6_SaIS6_EEEEENSt11_Niter_baseIT_E13iterator_typeESD_ W
_ZSt12__niter_baseIN9__gnu_cxx17__normal_iteratorIPN4Tins9PDUOptionItNS2_6DHCPv6EEESt6vectorIS5_SaIS5_EEEEENSt11_Niter_baseIT_E13iterator_typeESC_ W
_ZSt12__niter_baseIN9__gnu_cxx17__normal_iteratorIPSt4pairIhSt6vectorIhSaIhEEES3_IS6_SaIS6_EEEEENSt11_Niter_baseIT_E13iterator_typeESC_ W
_ZSt12__niter_baseIN9__gnu_cxx17__normal_iteratorIPSt6vectorIhSaIhEES2_IS4_SaIS4_EEEEENSt11_Niter_baseIT_E13iterator_typeESA_ W
_ZSt12__niter_baseIPfENSt11_Niter_baseIT_E13iterator_typeES2_ W
_ZSt12__niter_baseIPhENSt11_Niter_baseIT_E13iterator_typeES2_ W
_ZSt12__niter_baseIPiENSt11_Niter_baseIT_E13iterator_typeES2_ W
_ZSt12__niter_baseIPjENSt11_Niter_baseIT_E13iterator_typeES2_ W
_ZSt12__niter_baseIPKhENSt11_Niter_baseIT_E13iterator_typeES3_ W
_ZSt12__niter_baseIPN4Tins11IPv4AddressEENSt11_Niter_baseIT_E13iterator_typeES4_ W
_ZSt12__niter_baseIPN4Tins11IPv6AddressEENSt11_Niter_baseIT_E13iterator_typeES4_ W
_ZSt12__niter_baseIPN4Tins13ICMPExtensionEENSt11_Niter_baseIT_E13iterator_typeES4_ W
_ZSt12__niter_baseIPN4Tins16NetworkInterface10IPv6PrefixEENSt11_Niter_baseIT_E13iterator_typeES5_ W
_ZSt12__niter_baseIPN4Tins16NetworkInterfaceEENSt11_Niter_baseIT_E13iterator_typeES4_ W
_ZSt12__niter_baseIPN4Tins3DNS5queryEENSt11_Niter_baseIT_E13iterator_typeES5_ W
_ZSt12__niter_baseIPN4Tins3DNS8resourceEENSt11_Niter_baseIT_E13iterator_typeES5_ W
_ZSt12__niter_baseIPN4Tins5Utils10RouteEntryEENSt11_Niter_baseIT_E13iterator_typeES5_ W
_ZSt12__niter_baseIPN4Tins5Utils11Route6EntryEENSt11_Niter_baseIT_E13iterator_typeES5_ W
_ZSt12__niter_baseIPN4Tins6ICMPv624multicast_address_recordEENSt11_Niter_baseIT_E13iterator_typeES5_ W
_ZSt12__niter_baseIPN4Tins9Internals12IPv4FragmentEENSt11_Niter_baseIT_E13iterator_typeES5_ W
_ZSt12__niter_baseIPN4Tins9PDUOptionIhNS0_3TCPEEEENSt11_Niter_baseIT_E13iterator_typeES6_ W
_ZSt12__niter_baseIPN4Tins9PDUOptionIhNS0_4DHCPEEEENSt11_Niter_baseIT_E13iterator_typeES6_ W
_ZSt12__niter_baseIPN4Tins9PDUOptionIhNS0_4IPv6EEEENSt11_Niter_baseIT_E13iterator_typeES6_ W
_ZSt12__niter_baseIPN4Tins9PDUOptionIhNS0_6ICMPv6EEEENSt11_Niter_baseIT_E13iterator_typeES6_ W
_ZSt12__niter_baseIPN4Tins9PDUOptionINS0_2IP17option_identifierES2_EEENSt11_Niter_baseIT_E13iterator_typeES7_ W
_ZSt12__niter_baseIPN4Tins9PDUOptionINS0_5PPPoE8TagTypesES2_EEENSt11_Niter_baseIT_E13iterator_typeES7_ W
_ZSt12__niter_baseIPN4Tins9PDUOptionItNS0_6DHCPv6EEEENSt11_Niter_baseIT_E13iterator_typeES6_ W
_ZSt12__niter_baseIPSsENSt11_Niter_baseIT_E13iterator_typeES2_ W
_ZSt12__niter_baseIPSt4pairIhhEENSt11_Niter_baseIT_E13iterator_typeES4_ W
_ZSt12__niter_baseIPSt4pairIhSt6vectorIhSaIhEEEENSt11_Niter_baseIT_E13iterator_typeES7_ W
_ZSt12__niter_baseIPSt4pairIPjjEENSt11_Niter_baseIT_E13iterator_typeES5_ W
_ZSt12__niter_baseIPSt6vectorIhSaIhEEENSt11_Niter_baseIT_E13iterator_typeES5_ W
_ZSt12__niter_baseIPtENSt11_Niter_baseIT_E13iterator_typeES2_ W
_ZSt13back_inserterISt6vectorIN4Tins5Utils10RouteEntryESaIS3_EEESt20back_insert_iteratorIT_ERS7_ W
_ZSt13back_inserterISt6vectorIN4Tins5Utils11Route6EntryESaIS3_EEESt20back_insert_iteratorIT_ERS7_ W
_ZSt13copy_backwardIPfS0_ET0_T_S2_S1_ W
_ZSt13copy_backwardIPhS0_ET0_T_S2_S1_ W
_ZSt13copy_backwardIPiS0_ET0_T_S2_S1_ W
_ZSt13copy_backwardIPN4Tins11IPv4AddressES2_ET0_T_S4_S3_ W
_ZSt13copy_backwardIPN4Tins11IPv6AddressES2_ET0_T_S4_S3_ W
_ZSt13copy_backwardIPN4Tins13ICMPExtensionES2_ET0_T_S4_S3_ W
_ZSt13copy_backwardIPN4Tins16NetworkInterface10IPv6PrefixES3_ET0_T_S5_S4_ W
_ZSt13copy_backwardIPN4Tins16NetworkInterfaceES2_ET0_T_S4_S3_ W
_ZSt13copy_backwardIPN4Tins3DNS5queryES3_ET0_T_S5_S4_ W
_ZSt13copy_backwardIPN4Tins3DNS8resourceES3_ET0_T_S5_S4_ W
_ZSt13copy_backwardIPN4Tins5Utils10RouteEntryES3_ET0_T_S5_S4_ W
_ZSt13copy_backwardIPN4Tins5Utils11Route6EntryES3_ET0_T_S5_S4_ W
_ZSt13copy_backwardIPN4Tins6ICMPv624multicast_address_recordES3_ET0_T_S5_S4_ W
_ZSt13copy_backwardIPN4Tins9Internals12IPv4FragmentES3_ET0_T_S5_S4_ W
_ZSt13copy_backwardIPN4Tins9PDUOptionIhNS0_3TCPEEES4_ET0_T_S6_S5_ W
_ZSt13copy_backwardIPN4Tins9PDUOptionIhNS0_4DHCPEEES4_ET0_T_S6_S5_ W
_ZSt13copy_backwardIPN4Tins9PDUOptionIhNS0_4IPv6EEES4_ET0_T_S6_S5_ W
_ZSt13copy_backwardIPN4Tins9PDUOptionIhNS0_6ICMPv6EEES4_ET0_T_S6_S5_ W
_ZSt13copy_backwardIPN4Tins9PDUOptionINS0_2IP17option_identifierES2_EES5_ET0_T_S7_S6_ W
_ZSt13copy_backwardIPN4Tins9PDUOptionINS0_5PPPoE8TagTypesES2_EES5_ET0_T_S7_S6_ W
_ZSt13copy_backwardIPN4Tins9PDUOptionItNS0_6DHCPv6EEES4_ET0_T_S6_S5_ W
_ZSt13copy_backwardIPSsS0_ET0_T_S2_S1_ W
_ZSt13copy_backwardIPSt4pairIhhES2_ET0_T_S4_S3_ W
_ZSt13copy_backwardIPSt4pairIhSt6vectorIhSaIhEEES5_ET0_T_S7_S6_ W
_ZSt13copy_backwardIPSt4pairIPjjES3_ET0_T_S5_S4_ W
_ZSt13copy_backwardIPSt6vectorIhSaIhEES3_ET0_T_S5_S4_ W
_ZSt13__copy_move_aILb0EPcPhET1_T0_S3_S2_ W
_ZSt13__copy_move_aILb0EPfS0_ET1_T0_S2_S1_ W
_ZSt13__copy_move_aILb0EPhS0_ET1_T0_S2_S1_ W
_ZSt13__copy_move_aILb0EPiS0_ET1_T0_S2_S1_ W
_ZSt13__copy_move_aILb0EPKcPhET1_T0_S4_S3_ W
_ZSt13__copy_move_aILb0EPKhPhET1_T0_S4_S3_ W
_ZSt13__copy_move_aILb0EPKN4Tins11IPv6AddressEPS1_ET1_T0_S6_S5_ W
_ZSt13__copy_move_aILb0EPKN4Tins13ICMPExtensionEPS1_ET1_T0_S6_S5_ W
_ZSt13__copy_move_aILb0EPKN4Tins6ICMPv624multicast_address_recordEPS2_ET1_T0_S7_S6_ W
_ZSt13__copy_move_aILb0EPKN4Tins9PDUOptionINS0_2IP17option_identifierES2_EEPS4_ET1_T0_S9_S8_ W
_ZSt13__copy_move_aILb0EPKSt4pairIhSt6vectorIhSaIhEEEPS4_ET1_T0_S9_S8_ W
_ZSt13__copy_move_aILb0EPKSt6vectorIhSaIhEEPS2_ET1_T0_S7_S6_ W
_ZSt13__copy_move_aILb0EPN4Tins11IPv6AddressES2_ET1_T0_S4_S3_ W
_ZSt13__copy_move_aILb0EPN4Tins13ICMPExtensionES2_ET1_T0_S4_S3_ W
_ZSt13__copy_move_aILb0EPN4Tins6ICMPv624multicast_address_recordES3_ET1_T0_S5_S4_ W
_ZSt13__copy_move_aILb0EPN4Tins9PDUOptionIhNS0_3TCPEEES4_ET1_T0_S6_S5_ W
_ZSt13__copy_move_aILb0EPN4Tins9PDUOptionIhNS0_4DHCPEEES4_ET1_T0_S6_S5_ W
_ZSt13__copy_move_aILb0EPN4Tins9PDUOptionIhNS0_6ICMPv6EEES4_ET1_T0_S6_S5_ W
_ZSt13__copy_move_aILb0EPN4Tins9PDUOptionINS0_2IP17option_identifierES2_EES5_ET1_T0_S7_S6_ W
_ZSt13__copy_move_aILb0EPN4Tins9PDUOptionItNS0_6DHCPv6EEES4_ET1_T0_S6_S5_ W
_ZSt13__copy_move_aILb0EPSt4pairIhSt6vectorIhSaIhEEES5_ET1_T0_S7_S6_ W
_ZSt13__copy_move_aILb0EPSt6vectorIhSaIhEES3_ET1_T0_S5_S4_ W
_ZSt14__copy_move_a2ILb0EN9__gnu_cxx17__normal_iteratorIPcSsEENS1_IPhSt6vectorIhSaIhEEEEET1_T0_SA_S9_ W
_ZSt14__copy_move_a2ILb0EN9__gnu_cxx17__normal_iteratorIPcSsEEPhET1_T0_S6_S5_ W
_ZSt14__copy_move_a2ILb0EN9__gnu_cxx17__normal_iteratorIPKcSsEENS1_IPhSt6vectorIhSaIhEEEEET1_T0_SB_SA_ W
_ZSt14__copy_move_a2ILb0EN9__gnu_cxx17__normal_iteratorIPKcSsEEPhET1_T0_S7_S6_ W
_ZSt14__copy_move_a2ILb0EN9__gnu_cxx17__normal_iteratorIPKhSt6vectorIhSaIhEEEENS1_IPhS6_EEET1_T0_SB_SA_ W
_ZSt14__copy_move_a2ILb0EN9__gnu_cxx17__normal_iteratorIPKhSt6vectorIhSaIhEEEEPhET1_T0_SA_S9_ W
_ZSt14__copy_move_a2ILb0EN9__gnu_cxx17__normal_iteratorIPKN4Tins11IPv6AddressESt6vectorIS3_SaIS3_EEEENS1_IPS3_S8_EEET1_T0_SD_SC_ W
_ZSt14__copy_move_a2ILb0EN9__gnu_cxx17__normal_iteratorIPKN4Tins13ICMPExtensionESt6vectorIS3_SaIS3_EEEENS1_IPS3_S8_EEET1_T0_SD_SC_ W
_ZSt14__copy_move_a2ILb0EN9__gnu_cxx17__normal_iteratorIPKN4Tins6ICMPv624multicast_address_recordESt6vectorIS4_SaIS4_EEEENS1_IPS4_S9_EEET1_T0_SE_SD_ W
_ZSt14__copy_move_a2ILb0EN9__gnu_cxx17__normal_iteratorIPKN4Tins9PDUOptionINS2_2IP17option_identifierES4_EESt6vectorIS6_SaIS6_EEEENS1_IPS6_SB_EEET1_T0_SG_SF_ W
_ZSt14__copy_move_a2ILb0EN9__gnu_cxx17__normal_iteratorIPKSt4pairIhSt6vectorIhSaIhEEES3_IS6_SaIS6_EEEENS1_IPS6_SA_EEET1_T0_SF_SE_ W
_ZSt14__copy_move_a2ILb0EN9__gnu_cxx17__normal_iteratorIPKSt6vectorIhSaIhEES2_IS4_SaIS4_EEEENS1_IPS4_S8_EEET1_T0_SD_SC_ W
_ZSt14__copy_move_a2ILb0EN9__gnu_cxx17__normal_iteratorIPN4Tins9PDUOptionIhNS2_3TCPEEESt6vectorIS5_SaIS5_EEEESA_ET1_T0_SC_SB_ W
_ZSt14__copy_move_a2ILb0EN9__gnu_cxx17__normal_iteratorIPN4Tins9PDUOptionIhNS2_4DHCPEEESt6vectorIS5_SaIS5_EEEESA_ET1_T0_SC_SB_ W
_ZSt14__copy_move_a2ILb0EN9__gnu_cxx17__normal_iteratorIPN4Tins9PDUOptionIhNS2_6ICMPv6EEESt6vectorIS5_SaIS5_EEEESA_ET1_T0_SC_SB_ W
_ZSt14__copy_move_a2ILb0EN9__gnu_cxx17__normal_iteratorIPN4Tins9PDUOptionINS2_2IP17option_identifierES4_EESt6vectorIS6_SaIS6_EEEESB_ET1_T0_SD_SC_ W
_ZSt14__copy_move_a2ILb0EN9__gnu_cxx17__normal_iteratorIPN4Tins9PDUOptionItNS2_6DHCPv6EEESt6vectorIS5_SaIS5_EEEESA_ET1_T0_SC_SB_ W
_ZSt14__copy_move_a2ILb0EPfS0_ET1_T0_S2_S1_ W
_ZSt14__copy_move_a2ILb0EPhS0_ET1_T0_S2_S1_ W
_ZSt14__copy_move_a2ILb0EPiS0_ET1_T0_S2_S1_ W
_ZSt14__copy_move_a2ILb0EPKhPhET1_T0_S4_S3_ W
_ZSt14__copy_move_a2ILb0EPN4Tins11IPv6AddressES2_ET1_T0_S4_S3_ W
_ZSt14__copy_move_a2ILb0EPN4Tins13ICMPExtensionES2_ET1_T0_S4_S3_ W
_ZSt14__copy_move_a2ILb0EPN4Tins6ICMPv624multicast_address_recordES3_ET1_T0_S5_S4_ W
_ZSt14__copy_move_a2ILb0EPN4Tins9PDUOptionINS0_2IP17option_identifierES2_EES5_ET1_T0_S7_S6_ W
_ZSt14__copy_move_a2ILb0EPSt4pairIhSt6vectorIhSaIhEEES5_ET1_T0_S7_S6_ W
_ZSt14__copy_move_a2ILb0EPSt6vectorIhSaIhEES3_ET1_T0_S5_S4_ W
_ZSt18uninitialized_copyIN9__gnu_cxx17__normal_iteratorIPcSsEEPhET0_T_S6_S5_ W
_ZSt18uninitialized_copyIN9__gnu_cxx17__normal_iteratorIPKcSsEEPhET0_T_S7_S6_ W
_ZSt18uninitialized_copyIN9__gnu_cxx17__normal_iteratorIPKhSt6vectorIhSaIhEEEEPhET0_T_SA_S9_ W
_ZSt18uninitialized_copyIN9__gnu_cxx17__normal_iteratorIPKN4Tins11IPv4AddressESt6vectorIS3_SaIS3_EEEEPS3_ET0_T_SC_SB_ W
_ZSt18uninitialized_copyIN9__gnu_cxx17__normal_iteratorIPKN4Tins11IPv6AddressESt6vectorIS3_SaIS3_EEEEPS3_ET0_T_SC_SB_ W
_ZSt18uninitialized_copyIN9__gnu_cxx17__normal_iteratorIPKN4Tins13ICMPExtensionESt6vectorIS3_SaIS3_EEEEPS3_ET0_T_SC_SB_ W
_ZSt18uninitialized_copyIN9__gnu_cxx17__normal_iteratorIPKN4Tins16NetworkInterface10IPv6PrefixESt6vectorIS4_SaIS4_EEEEPS4_ET0_T_SD_SC_ W
_ZSt18uninitialized_copyIN9__gnu_cxx17__normal_iteratorIPKN4Tins6ICMPv624multicast_address_recordESt6vectorIS4_SaIS4_EEEEPS4_ET0_T_SD_SC_ W
_ZSt18uninitialized_copyIN9__gnu_cxx17__normal_iteratorIPKN4Tins9Internals12IPv4FragmentESt6vectorIS4_SaIS4_EEEEPS4_ET0_T_SD_SC_ W
_ZSt18uninitialized_copyIN9__gnu_cxx17__normal_iteratorIPKN4Tins9PDUOptionIhNS2_3TCPEEESt6vectorIS5_SaIS5_EEEEPS5_ET0_T_SE_SD_ W
_ZSt18uninitialized_copyIN9__gnu_cxx17__normal_iteratorIPKN4Tins9PDUOptionIhNS2_4DHCPEEESt6vectorIS5_SaIS5_EEEEPS5_ET0_T_SE_SD_ W
_ZSt18uninitialized_copyIN9__gnu_cxx17__normal_iteratorIPKN4Tins9PDUOptionIhNS2_4IPv6EEESt6vectorIS5_SaIS5_EEEEPS5_ET0_T_SE_SD_ W
_ZSt18uninitialized_copyIN9__gnu_cxx17__normal_iteratorIPKN4Tins9PDUOptionIhNS2_6ICMPv6EEESt6vectorIS5_SaIS5_EEEEPS5_ET0_T_SE_SD_ W
_ZSt18uninitialized_copyIN9__gnu_cxx17__normal_iteratorIPKN4Tins9PDUOptionINS2_2IP17option_identifierES4_EESt6vectorIS6_SaIS6_EEEEPS6_ET0_T_SF_SE_ W
_ZSt18uninitialized_copyIN9__gnu_cxx17__normal_iteratorIPKN4Tins9PDUOptionINS2_5PPPoE8TagTypesES4_EESt6vectorIS6_SaIS6_EEEEPS6_ET0_T_SF_SE_ W
_ZSt18uninitialized_copyIN9__gnu_cxx17__normal_iteratorIPKN4Tins9PDUOptionItNS2_6DHCPv6EEESt6vectorIS5_SaIS5_EEEEPS5_ET0_T_SE_SD_ W
_ZSt18uninitialized_copyIN9__gnu_cxx17__normal_iteratorIPKSsSt6vectorISsSaISsEEEEPSsET0_T_SA_S9_ W
_ZSt18uninitialized_copyIN9__gnu_cxx17__normal_iteratorIPKSt4pairIhSt6vectorIhSaIhEEES3_IS6_SaIS6_EEEEPS6_ET0_T_SE_SD_ W
_ZSt18uninitialized_copyIN9__gnu_cxx17__normal_iteratorIPKSt6vectorIhSaIhEES2_IS4_SaIS4_EEEEPS4_ET0_T_SC_SB_ W
_ZSt18uninitialized_copyIPfS0_ET0_T_S2_S1_ W
_ZSt18uninitialized_copyIPhS0_ET0_T_S2_S1_ W
_ZSt18uninitialized_copyIPiS0_ET0_T_S2_S1_ W
_ZSt18uninitialized_copyIPKhPhET0_T_S4_S3_ W
_ZSt18uninitialized_copyIPN4Tins11IPv4AddressES2_ET0_T_S4_S3_ W
_ZSt18uninitialized_copyIPN4Tins11IPv6AddressES2_ET0_T_S4_S3_ W
_ZSt18uninitialized_copyIPN4Tins13ICMPExtensionES2_ET0_T_S4_S3_ W
_ZSt18uninitialized_copyIPN4Tins16NetworkInterface10IPv6PrefixES3_ET0_T_S5_S4_ W
_ZSt18uninitialized_copyIPN4Tins16NetworkInterfaceES2_ET0_T_S4_S3_ W
_ZSt18uninitialized_copyIPN4Tins3DNS5queryES3_ET0_T_S5_S4_ W
_ZSt18uninitialized_copyIPN4Tins3DNS8resourceES3_ET0_T_S5_S4_ W
_ZSt18uninitialized_copyIPN4Tins5Utils10RouteEntryES3_ET0_T_S5_S4_ W
_ZSt18uninitialized_copyIPN4Tins5Utils11Route6EntryES3_ET0_T_S5_S4_ W
_ZSt18uninitialized_copyIPN4Tins6ICMPv624multicast_address_recordES3_ET0_T_S5_S4_ W
_ZSt18uninitialized_copyIPN4Tins9Internals12IPv4FragmentES3_ET0_T_S5_S4_ W
_ZSt18uninitialized_copyIPN4Tins9PDUOptionIhNS0_3TCPEEES4_ET0_T_S6_S5_ W
_ZSt18uninitialized_copyIPN4Tins9PDUOptionIhNS0_4DHCPEEES4_ET0_T_S6_S5_ W
_ZSt18uninitialized_copyIPN4Tins9PDUOptionIhNS0_4IPv6EEES4_ET0_T_S6_S5_ W
_ZSt18uninitialized_copyIPN4Tins9PDUOptionIhNS0_6ICMPv6EEES4_ET0_T_S6_S5_ W
_ZSt18uninitialized_copyIPN4Tins9PDUOptionINS0_2IP17option_identifierES2_EES5_ET0_T_S7_S6_ W
_ZSt18uninitialized_copyIPN4Tins9PDUOptionINS0_5PPPoE8TagTypesES2_EES5_ET0_T_S7_S6_ W
_ZSt18uninitialized_copyIPN4Tins9PDUOptionItNS0_6DHCPv6EEES4_ET0_T_S6_S5_ W
_ZSt18uninitialized_copyIPSsS0_ET0_T_S2_S1_ W
_ZSt18uninitialized_copyIPSt4pairIhhES2_ET0_T_S4_S3_ W
_ZSt18uninitialized_copyIPSt4pairIhSt6vectorIhSaIhEEES5_ET0_T_S7_S6_ W
_ZSt18uninitialized_copyIPSt4pairIPjjES3_ET0_T_S5_S4_ W
_ZSt18uninitialized_copyIPSt6vectorIhSaIhEES3_ET0_T_S5_S4_ W
_ZSt19__iterator_categoryIN9__gnu_cxx17__normal_iteratorIPcSsEEENSt15iterator_traitsIT_E17iterator_categoryERKS5_ W
_ZSt19__iterator_categoryIN9__gnu_cxx17__normal_iteratorIPhSt6vectorIhSaIhEEEEENSt15iterator_traitsIT_E17iterator_categoryERKS8_ W
_ZSt19__iterator_categoryIN9__gnu_cxx17__normal_iteratorIPKcSsEEENSt15iterator_traitsIT_E17iterator_categoryERKS6_ W
_ZSt19__iterator_categoryIN9__gnu_cxx17__normal_iteratorIPKhSt6vectorIhSaIhEEEEENSt15iterator_traitsIT_E17iterator_categoryERKS9_ W
_ZSt19__iterator_categoryIPhENSt15iterator_traitsIT_E17iterator_categoryERKS2_ W
_ZSt19__iterator_categoryIPKhENSt15iterator_traitsIT_E17iterator_categoryERKS3_ W
_ZSt20uninitialized_fill_nIPhmhEvT_T0_RKT1_ W
_ZSt20uninitialized_fill_nIPimiEvT_T0_RKT1_ W
_ZSt20uninitialized_fill_nIPjmjEvT_T0_RKT1_ W
_ZSt20uninitialized_fill_nIPN4Tins11IPv4AddressEmS1_EvT_T0_RKT1_ W
_ZSt20uninitialized_fill_nIPtmtEvT_T0_RKT1_ W
_ZSt22__copy_move_backward_aILb0EPfS0_ET1_T0_S2_S1_ W
_ZSt22__copy_move_backward_aILb0EPhS0_ET1_T0_S2_S1_ W
_ZSt22__copy_move_backward_aILb0EPiS0_ET1_T0_S2_S1_ W
_ZSt22__copy_move_backward_aILb0EPN4Tins11IPv4AddressES2_ET1_T0_S4_S3_ W
_ZSt22__copy_move_backward_aILb0EPN4Tins11IPv6AddressES2_ET1_T0_S4_S3_ W
_ZSt22__copy_move_backward_aILb0EPN4Tins13ICMPExtensionES2_ET1_T0_S4_S3_ W
_ZSt22__copy_move_backward_aILb0EPN4Tins16NetworkInterface10IPv6PrefixES3_ET1_T0_S5_S4_ W
_ZSt22__copy_move_backward_aILb0EPN4Tins16NetworkInterfaceES2_ET1_T0_S4_S3_ W
_ZSt22__copy_move_backward_aILb0EPN4Tins3DNS5queryES3_ET1_T0_S5_S4_ W
_ZSt22__copy_move_backward_aILb0EPN4Tins3DNS8resourceES3_ET1_T0_S5_S4_ W
_ZSt22__copy_move_backward_aILb0EPN4Tins5Utils10RouteEntryES3_ET1_T0_S5_S4_ W
_ZSt22__copy_move_backward_aILb0EPN4Tins5Utils11Route6EntryES3_ET1_T0_S5_S4_ W
_ZSt22__copy_move_backward_aILb0EPN4Tins6ICMPv624multicast_address_recordES3_ET1_T0_S5_S4_ W
_ZSt22__copy_move_backward_aILb0EPN4Tins9Internals12IPv4FragmentES3_ET1_T0_S5_S4_ W
_ZSt22__copy_move_backward_aILb0EPN4Tins9PDUOptionIhNS0_3TCPEEES4_ET1_T0_S6_S5_ W
_ZSt22__copy_move_backward_aILb0EPN4Tins9PDUOptionIhNS0_4DHCPEEES4_ET1_T0_S6_S5_ W
_ZSt22__copy_move_backward_aILb0EPN4Tins9PDUOptionIhNS0_4IPv6EEES4_ET1_T0_S6_S5_ W
_ZSt22__copy_move_backward_aILb0EPN4Tins9PDUOptionIhNS0_6ICMPv6EEES4_ET1_T0_S6_S5_ W
_ZSt22__copy_move_backward_aILb0EPN4Tins9PDUOptionINS0_2IP17option_identifierES2_EES5_ET1_T0_S7_S6_ W
_ZSt22__copy_move_backward_aILb0EPN4Tins9PDUOptionINS0_5PPPoE8TagTypesES2_EES5_ET1_T0_S7_S6_ W
_ZSt22__copy_move_backward_aILb0EPN4Tins9PDUOptionItNS0_6DHCPv6EEES4_ET1_T0_S6_S5_ W
_ZSt22__copy_move_backward_aILb0EPSsS0_ET1_T0_S2_S1_ W
_ZSt22__copy_move_backward_aILb0EPSt4pairIhhES2_ET1_T0_S4_S3_ W
_ZSt22__copy_move_backward_aILb0EPSt4pairIhSt6vectorIhSaIhEEES5_ET1_T0_S7_S6_ W
_ZSt22__copy_move_backward_aILb0EPSt4pairIPjjES3_ET1_T0_S5_S4_ W
_ZSt22__copy_move_backward_aILb0EPSt6vectorIhSaIhEES3_ET1_T0_S5_S4_ W
_ZSt22__uninitialized_copy_aIN9__gnu_cxx17__normal_iteratorIPcSsEEPhhET0_T_S6_S5_RSaIT1_E W
_ZSt22__uninitialized_copy_aIN9__gnu_cxx17__normal_iteratorIPKcSsEEPhhET0_T_S7_S6_RSaIT1_E W
_ZSt22__uninitialized_copy_aIN9__gnu_cxx17__normal_iteratorIPKhSt6vectorIhSaIhEEEEPhhET0_T_SA_S9_RSaIT1_E W
_ZSt22__uninitialized_copy_aIN9__gnu_cxx17__normal_iteratorIPKN4Tins11IPv4AddressESt6vectorIS3_SaIS3_EEEEPS3_S3_ET0_T_SC_SB_RSaIT1_E W
_ZSt22__uninitialized_copy_aIN9__gnu_cxx17__normal_iteratorIPKN4Tins11IPv6AddressESt6vectorIS3_SaIS3_EEEEPS3_S3_ET0_T_SC_SB_RSaIT1_E W
_ZSt22__uninitialized_copy_aIN9__gnu_cxx17__normal_iteratorIPKN4Tins13ICMPExtensionESt6vectorIS3_SaIS3_EEEEPS3_S3_ET0_T_SC_SB_RSaIT1_E W
_ZSt22__uninitialized_copy_aIN9__gnu_cxx17__normal_iteratorIPKN4Tins16NetworkInterface10IPv6PrefixESt6vectorIS4_SaIS4_EEEEPS4_S4_ET0_T_SD_SC_RSaIT1_E W
_ZSt22__uninitialized_copy_aIN9__gnu_cxx17__normal_iteratorIPKN4Tins6ICMPv624multicast_address_recordESt6vectorIS4_SaIS4_EEEEPS4_S4_ET0_T_SD_SC_RSaIT1_E W
_ZSt22__uninitialized_copy_aIN9__gnu_cxx17__normal_iteratorIPKN4Tins9Internals12IPv4FragmentESt6vectorIS4_SaIS4_EEEEPS4_S4_ET0_T_SD_SC_RSaIT1_E W
_ZSt22__uninitialized_copy_aIN9__gnu_cxx17__normal_iteratorIPKN4Tins9PDUOptionIhNS2_3TCPEEESt6vectorIS5_SaIS5_EEEEPS5_S5_ET0_T_SE_SD_RSaIT1_E W
_ZSt22__uninitialized_copy_aIN9__gnu_cxx17__normal_iteratorIPKN4Tins9PDUOptionIhNS2_4DHCPEEESt6vectorIS5_SaIS5_EEEEPS5_S5_ET0_T_SE_SD_RSaIT1_E W
_ZSt22__uninitialized_copy_aIN9__gnu_cxx17__normal_iteratorIPKN4Tins9PDUOptionIhNS2_4IPv6EEESt6vectorIS5_SaIS5_EEEEPS5_S5_ET0_T_SE_SD_RSaIT1_E W
_ZSt22__uninitialized_copy_aIN9__gnu_cxx17__normal_iteratorIPKN4Tins9PDUOptionIhNS2_6ICMPv6EEESt6vectorIS5_SaIS5_EEEEPS5_S5_ET0_T_SE_SD_RSaIT1_E W
_ZSt22__uninitialized_copy_aIN9__gnu_cxx17__normal_iteratorIPKN4Tins9PDUOptionINS2_2IP17option_identifierES4_EESt6vectorIS6_SaIS6_EEEEPS6_S6_ET0_T_SF_SE_RSaIT1_E W
_ZSt22__uninitialized_copy_aIN9__gnu_cxx17__normal_iteratorIPKN4Tins9PDUOptionINS2_5PPPoE8TagTypesES4_EESt6vectorIS6_SaIS6_EEEEPS6_S6_ET0_T_SF_SE_RSaIT1_E W
_ZSt22__uninitialized_copy_aIN9__gnu_cxx17__normal_iteratorIPKN4Tins9PDUOptionItNS2_6DHCPv6EEESt6vectorIS5_SaIS5_EEEEPS5_S5_ET0_T_SE_SD_RSaIT1_E W
_ZSt22__uninitialized_copy_aIN9__gnu_cxx17__normal_iteratorIPKSsSt6vectorISsSaISsEEEEPSsSsET0_T_SA_S9_RSaIT1_E W
_ZSt22__uninitialized_copy_aIN9__gnu_cxx17__normal_iteratorIPKSt4pairIhSt6vectorIhSaIhEEES3_IS6_SaIS6_EEEEPS6_S6_ET0_T_SE_SD_RSaIT1_E W
_ZSt22__uninitialized_copy_aIN9__gnu_cxx17__normal_iteratorIPKSt6vectorIhSaIhEES2_IS4_SaIS4_EEEEPS4_S4_ET0_T_SC_SB_RSaIT1_E W
_ZSt22__uninitialized_copy_aIPfS0_fET0_T_S2_S1_RSaIT1_E W
_ZSt22__uninitialized_copy_aIPhS0_hET0_T_S2_S1_RSaIT1_E W
_ZSt22__uninitialized_copy_aIPiS0_iET0_T_S2_S1_RSaIT1_E W
_ZSt22__uninitialized_copy_aIPKhPhhET0_T_S4_S3_RSaIT1_E W
_ZSt22__uninitialized_copy_aIPN4Tins11IPv4AddressES2_S1_ET0_T_S4_S3_RSaIT1_E W
_ZSt22__uninitialized_copy_aIPN4Tins11IPv6AddressES2_S1_ET0_T_S4_S3_RSaIT1_E W
_ZSt22__uninitialized_copy_aIPN4Tins13ICMPExtensionES2_S1_ET0_T_S4_S3_RSaIT1_E W
_ZSt22__uninitialized_copy_aIPN4Tins16NetworkInterface10IPv6PrefixES3_S2_ET0_T_S5_S4_RSaIT1_E W
_ZSt22__uninitialized_copy_aIPN4Tins16NetworkInterfaceES2_S1_ET0_T_S4_S3_RSaIT1_E W
_ZSt22__uninitialized_copy_aIPN4Tins3DNS5queryES3_S2_ET0_T_S5_S4_RSaIT1_E W
_ZSt22__uninitialized_copy_aIPN4Tins3DNS8resourceES3_S2_ET0_T_S5_S4_RSaIT1_E W
_ZSt22__uninitialized_copy_aIPN4Tins5Utils10RouteEntryES3_S2_ET0_T_S5_S4_RSaIT1_E W
_ZSt22__uninitialized_copy_aIPN4Tins5Utils11Route6EntryES3_S2_ET0_T_S5_S4_RSaIT1_E W
_ZSt22__uninitialized_copy_aIPN4Tins6ICMPv624multicast_address_recordES3_S2_ET0_T_S5_S4_RSaIT1_E W
_ZSt22__uninitialized_copy_aIPN4Tins9Internals12IPv4FragmentES3_S2_ET0_T_S5_S4_RSaIT1_E W
_ZSt22__uninitialized_copy_aIPN4Tins9PDUOptionIhNS0_3TCPEEES4_S3_ET0_T_S6_S5_RSaIT1_E W
_ZSt22__uninitialized_copy_aIPN4Tins9PDUOptionIhNS0_4DHCPEEES4_S3_ET0_T_S6_S5_RSaIT1_E W
_ZSt22__uninitialized_copy_aIPN4Tins9PDUOptionIhNS0_4IPv6EEES4_S3_ET0_T_S6_S5_RSaIT1_E W
_ZSt22__uninitialized_copy_aIPN4Tins9PDUOptionIhNS0_6ICMPv6EEES4_S3_ET0_T_S6_S5_RSaIT1_E W
_ZSt22__uninitialized_copy_aIPN4Tins9PDUOptionINS0_2IP17option_identifierES2_EES5_S4_ET0_T_S7_S6_RSaIT1_E W
_ZSt22__uninitialized_copy_aIPN4Tins9PDUOptionINS0_5PPPoE8TagTypesES2_EES5_S4_ET0_T_S7_S6_RSaIT1_E W
_ZSt22__uninitialized_copy_aIPN4Tins9PDUOptionItNS0_6DHCPv6EEES4_S3_ET0_T_S6_S5_RSaIT1_E W
_ZSt22__uninitialized_copy_aIPSsS0_SsET0_T_S2_S1_RSaIT1_E W
_ZSt22__uninitialized_copy_aIPSt4pairIhhES2_S1_ET0_T_S4_S3_RSaIT1_E W
_ZSt22__uninitialized_copy_aIPSt4pairIhSt6vectorIhSaIhEEES5_S4_ET0_T_S7_S6_RSaIT1_E W
_ZSt22__uninitialized_copy_aIPSt4pairIPjjES3_S2_ET0_T_S5_S4_RSaIT1_E W
_ZSt22__uninitialized_copy_aIPSt6vectorIhSaIhEES3_S2_ET0_T_S5_S4_RSaIT1_E W
_ZSt22__uninitialized_move_aIPhS0_SaIhEET0_T_S3_S2_RT1_ W
_ZSt23__copy_move_backward_a2ILb0EPfS0_ET1_T0_S2_S1_ W
_ZSt23__copy_move_backward_a2ILb0EPhS0_ET1_T0_S2_S1_ W
_ZSt23__copy_move_backward_a2ILb0EPiS0_ET1_T0_S2_S1_ W
_ZSt23__copy_move_backward_a2ILb0EPN4Tins11IPv4AddressES2_ET1_T0_S4_S3_ W
_ZSt23__copy_move_backward_a2ILb0EPN4Tins11IPv6AddressES2_ET1_T0_S4_S3_ W
_ZSt23__copy_move_backward_a2ILb0EPN4Tins13ICMPExtensionES2_ET1_T0_S4_S3_ W
_ZSt23__copy_move_backward_a2ILb0EPN4Tins16NetworkInterface10IPv6PrefixES3_ET1_T0_S5_S4_ W
_ZSt23__copy_move_backward_a2ILb0EPN4Tins16NetworkInterfaceES2_ET1_T0_S4_S3_ W
_ZSt23__copy_move_backward_a2ILb0EPN4Tins3DNS5queryES3_ET1_T0_S5_S4_ W
_ZSt23__copy_move_backward_a2ILb0EPN4Tins3DNS8resourceES3_ET1_T0_S5_S4_ W
_ZSt23__copy_move_backward_a2ILb0EPN4Tins5Utils10RouteEntryES3_ET1_T0_S5_S4_ W
_ZSt23__copy_move_backward_a2ILb0EPN4Tins5Utils11Route6EntryES3_ET1_T0_S5_S4_ W
_ZSt23__copy_move_backward_a2ILb0EPN4Tins6ICMPv624multicast_address_recordES3_ET1_T0_S5_S4_ W
_ZSt23__copy_move_backward_a2ILb0EPN4Tins9Internals12IPv4FragmentES3_ET1_T0_S5_S4_ W
_ZSt23__copy_move_backward_a2ILb0EPN4Tins9PDUOptionIhNS0_3TCPEEES4_ET1_T0_S6_S5_ W
_ZSt23__copy_move_backward_a2ILb0EPN4Tins9PDUOptionIhNS0_4DHCPEEES4_ET1_T0_S6_S5_ W
_ZSt23__copy_move_backward_a2ILb0EPN4Tins9PDUOptionIhNS0_4IPv6EEES4_ET1_T0_S6_S5_ W
_ZSt23__copy_move_backward_a2ILb0EPN4Tins9PDUOptionIhNS0_6ICMPv6EEES4_ET1_T0_S6_S5_ W
_ZSt23__copy_move_backward_a2ILb0EPN4Tins9PDUOptionINS0_2IP17option_identifierES2_EES5_ET1_T0_S7_S6_ W
_ZSt23__copy_move_backward_a2ILb0EPN4Tins9PDUOptionINS0_5PPPoE8TagTypesES2_EES5_ET1_T0_S7_S6_ W
_ZSt23__copy_move_backward_a2ILb0EPN4Tins9PDUOptionItNS0_6DHCPv6EEES4_ET1_T0_S6_S5_ W
_ZSt23__copy_move_backward_a2ILb0EPSsS0_ET1_T0_S2_S1_ W
_ZSt23__copy_move_backward_a2ILb0EPSt4pairIhhES2_ET1_T0_S4_S3_ W
_ZSt23__copy_move_backward_a2ILb0EPSt4pairIhSt6vectorIhSaIhEEES5_ET1_T0_S7_S6_ W
_ZSt23__copy_move_backward_a2ILb0EPSt4pairIPjjES3_ET1_T0_S5_S4_ W
_ZSt23__copy_move_backward_a2ILb0EPSt6vectorIhSaIhEES3_ET1_T0_S5_S4_ W
_ZSt23lexicographical_compareIPKhS1_EbT_S2_T0_S3_ W
_ZSt24__uninitialized_fill_n_aIPhmhhEvT_T0_RKT1_RSaIT2_E W
_ZSt24__uninitialized_fill_n_aIPimiiEvT_T0_RKT1_RSaIT2_E W
_ZSt24__uninitialized_fill_n_aIPjmjjEvT_T0_RKT1_RSaIT2_E W
_ZSt24__uninitialized_fill_n_aIPN4Tins11IPv4AddressEmS1_S1_EvT_T0_RKT1_RSaIT2_E W
_ZSt24__uninitialized_fill_n_aIPtmttEvT_T0_RKT1_RSaIT2_E W
_ZSt29__lexicographical_compare_auxIPKhS1_EbT_S2_T0_S3_ W
_ZSt34__uninitialized_move_if_noexcept_aIPfS0_SaIfEET0_T_S3_S2_RT1_ W
_ZSt34__uninitialized_move_if_noexcept_aIPhS0_SaIhEET0_T_S3_S2_RT1_ W
_ZSt34__uninitialized_move_if_noexcept_aIPiS0_SaIiEET0_T_S3_S2_RT1_ W
_ZSt34__uninitialized_move_if_noexcept_aIPN4Tins11IPv4AddressES2_SaIS1_EET0_T_S5_S4_RT1_ W
_ZSt34__uninitialized_move_if_noexcept_aIPN4Tins11IPv6AddressES2_SaIS1_EET0_T_S5_S4_RT1_ W
_ZSt34__uninitialized_move_if_noexcept_aIPN4Tins13ICMPExtensionES2_SaIS1_EET0_T_S5_S4_RT1_ W
_ZSt34__uninitialized_move_if_noexcept_aIPN4Tins16NetworkInterface10IPv6PrefixES3_SaIS2_EET0_T_S6_S5_RT1_ W
_ZSt34__uninitialized_move_if_noexcept_aIPN4Tins16NetworkInterfaceES2_SaIS1_EET0_T_S5_S4_RT1_ W
_ZSt34__uninitialized_move_if_noexcept_aIPN4Tins3DNS5queryES3_SaIS2_EET0_T_S6_S5_RT1_ W
_ZSt34__uninitialized_move_if_noexcept_aIPN4Tins3DNS8resourceES3_SaIS2_EET0_T_S6_S5_RT1_ W
_ZSt34__uninitialized_move_if_noexcept_aIPN4Tins5Utils10RouteEntryES3_SaIS2_EET0_T_S6_S5_RT1_ W
_ZSt34__uninitialized_move_if_noexcept_aIPN4Tins5Utils11Route6EntryES3_SaIS2_EET0_T_S6_S5_RT1_ W
_ZSt34__uninitialized_move_if_noexcept_aIPN4Tins6ICMPv624multicast_address_recordES3_SaIS2_EET0_T_S6_S5_RT1_ W
_ZSt34__uninitialized_move_if_noexcept_aIPN4Tins9Internals12IPv4FragmentES3_SaIS2_EET0_T_S6_S5_RT1_ W
_ZSt34__uninitialized_move_if_noexcept_aIPN4Tins9PDUOptionIhNS0_3TCPEEES4_SaIS3_EET0_T_S7_S6_RT1_ W
_ZSt34__uninitialized_move_if_noexcept_aIPN4Tins9PDUOptionIhNS0_4DHCPEEES4_SaIS3_EET0_T_S7_S6_RT1_ W
_ZSt34__uninitialized_move_if_noexcept_aIPN4Tins9PDUOptionIhNS0_4IPv6EEES4_SaIS3_EET0_T_S7_S6_RT1_ W
_ZSt34__uninitialized_move_if_noexcept_aIPN4Tins9PDUOptionIhNS0_6ICMPv6EEES4_SaIS3_EET0_T_S7_S6_RT1_ W
_ZSt34__uninitialized_move_if_noexcept_aIPN4Tins9PDUOptionINS0_2IP17option_identifierES2_EES5_SaIS4_EET0_T_S8_S7_RT1_ W
_ZSt34__uninitialized_move_if_noexcept_aIPN4Tins9PDUOptionINS0_5PPPoE8TagTypesES2_EES5_SaIS4_EET0_T_S8_S7_RT1_ W
_ZSt34__uninitialized_move_if_noexcept_aIPN4Tins9PDUOptionItNS0_6DHCPv6EEES4_SaIS3_EET0_T_S7_S6_RT1_ W
_ZSt34__uninitialized_move_if_noexcept_aIPSsS0_SaISsEET0_T_S3_S2_RT1_ W
_ZSt34__uninitialized_move_if_noexcept_aIPSt4pairIhhES2_SaIS1_EET0_T_S5_S4_RT1_ W
_ZSt34__uninitialized_move_if_noexcept_aIPSt4pairIhSt6vectorIhSaIhEEES5_SaIS4_EET0_T_S8_S7_RT1_ W
_ZSt34__uninitialized_move_if_noexcept_aIPSt4pairIPjjES3_SaIS2_EET0_T_S6_S5_RT1_ W
_ZSt34__uninitialized_move_if_noexcept_aIPSt6vectorIhSaIhEES3_SaIS2_EET0_T_S6_S5_RT1_ W
_ZSt3maxImERKT_S2_S2_ W
_ZSt3minImERKT_S2_S2_ W
_ZSt4copyIN9__gnu_cxx17__normal_iteratorIPcSsEENS1_IPhSt6vectorIhSaIhEEEEET0_T_SA_S9_ W
_ZSt4copyIN9__gnu_cxx17__normal_iteratorIPcSsEEPhET0_T_S6_S5_ W
_ZSt4copyIN9__gnu_cxx17__normal_iteratorIPKcSsEENS1_IPhSt6vectorIhSaIhEEEEET0_T_SB_SA_ W
_ZSt4copyIN9__gnu_cxx17__normal_iteratorIPKcSsEEPhET0_T_S7_S6_ W
_ZSt4copyIN9__gnu_cxx17__normal_iteratorIPKhSt6vectorIhSaIhEEEENS1_IPhS6_EEET0_T_SB_SA_ W
_ZSt4copyIN9__gnu_cxx17__normal_iteratorIPKhSt6vectorIhSaIhEEEEPhET0_T_SA_S9_ W
_ZSt4copyIN9__gnu_cxx17__normal_iteratorIPKN4Tins11IPv6AddressESt6vectorIS3_SaIS3_EEEENS1_IPS3_S8_EEET0_T_SD_SC_ W
_ZSt4copyIN9__gnu_cxx17__normal_iteratorIPKN4Tins13ICMPExtensionESt6vectorIS3_SaIS3_EEEENS1_IPS3_S8_EEET0_T_SD_SC_ W
_ZSt4copyIN9__gnu_cxx17__normal_iteratorIPKN4Tins6ICMPv624multicast_address_recordESt6vectorIS4_SaIS4_EEEENS1_IPS4_S9_EEET0_T_SE_SD_ W
_ZSt4copyIN9__gnu_cxx17__normal_iteratorIPKN4Tins9PDUOptionINS2_2IP17option_identifierES4_EESt6vectorIS6_SaIS6_EEEENS1_IPS6_SB_EEET0_T_SG_SF_ W
_ZSt4copyIN9__gnu_cxx17__normal_iteratorIPKSt4pairIhSt6vectorIhSaIhEEES3_IS6_SaIS6_EEEENS1_IPS6_SA_EEET0_T_SF_SE_ W
_ZSt4copyIN9__gnu_cxx17__normal_iteratorIPKSt6vectorIhSaIhEES2_IS4_SaIS4_EEEENS1_IPS4_S8_EEET0_T_SD_SC_ W
_ZSt4copyIN9__gnu_cxx17__normal_iteratorIPN4Tins9PDUOptionIhNS2_3TCPEEESt6vectorIS5_SaIS5_EEEESA_ET0_T_SC_SB_ W
_ZSt4copyIN9__gnu_cxx17__normal_iteratorIPN4Tins9PDUOptionIhNS2_4DHCPEEESt6vectorIS5_SaIS5_EEEESA_ET0_T_SC_SB_ W
_ZSt4copyIN9__gnu_cxx17__normal_iteratorIPN4Tins9PDUOptionIhNS2_6ICMPv6EEESt6vectorIS5_SaIS5_EEEESA_ET0_T_SC_SB_ W
_ZSt4copyIN9__gnu_cxx17__normal_iteratorIPN4Tins9PDUOptionINS2_2IP17option_identifierES4_EESt6vectorIS6_SaIS6_EEEESB_ET0_T_SD_SC_ W
_ZSt4copyIN9__gnu_cxx17__normal_iteratorIPN4Tins9PDUOptionItNS2_6DHCPv6EEESt6vectorIS5_SaIS5_EEEESA_ET0_T_SC_SB_ W
_ZSt4copyIPfS0_ET0_T_S2_S1_ W
_ZSt4copyIPhS0_ET0_T_S2_S1_ W
_ZSt4copyIPiS0_ET0_T_S2_S1_ W
_ZSt4copyIPKhPhET0_T_S4_S3_ W
_ZSt4copyIPN4Tins11IPv6AddressES2_ET0_T_S4_S3_ W
_ZSt4copyIPN4Tins13ICMPExtensionES2_ET0_T_S4_S3_ W
_ZSt4copyIPN4Tins6ICMPv624multicast_address_recordES3_ET0_T_S5_S4_ W
_ZSt4copyIPN4Tins9PDUOptionINS0_2IP17option_identifierES2_EES5_ET0_T_S7_S6_ W
_ZSt4copyIPSt4pairIhSt6vectorIhSaIhEEES5_ET0_T_S7_S6_ W
_ZSt4copyIPSt6vectorIhSaIhEES3_ET0_T_S5_S4_ W
_ZSt4fillIPhhEvT_S1_RKT0_ W
_ZSt4swapIPN4Tins3PDUEEvRT_S4_ W
_ZSt5equalIPKhS1_EbT_S2_T0_ W
_ZSt6fill_nIPhmhET_S1_T0_RKT1_ W
_ZSt6fill_nIPimiET_S1_T0_RKT1_ W
_ZSt6fill_nIPjmjET_S1_T0_RKT1_ W
_ZSt6fill_nIPtmtET_S1_T0_RKT1_ W
_ZSt7advanceIN9__gnu_cxx17__normal_iteratorIPcSsEEmEvRT_T0_ W
_ZSt7advanceIN9__gnu_cxx17__normal_iteratorIPKcSsEEmEvRT_T0_ W
_ZSt7advanceIN9__gnu_cxx17__normal_iteratorIPKhSt6vectorIhSaIhEEEEmEvRT_T0_ W
_ZSt7advanceIPKhmEvRT_T0_ W
_ZSt8_DestroyIN4Tins13ICMPExtensionEEvPT_ W
_ZSt8_DestroyIN4Tins3DNS5queryEEvPT_ W
_ZSt8_DestroyIN4Tins3DNS8resourceEEvPT_ W
_ZSt8_DestroyIN4Tins5Utils10RouteEntryEEvPT_ W
_ZSt8_DestroyIN4Tins5Utils11Route6EntryEEvPT_ W
_ZSt8_DestroyIN4Tins6ICMPv624multicast_address_recordEEvPT_ W
_ZSt8_DestroyIN4Tins9Internals12IPv4FragmentEEvPT_ W
_ZSt8_DestroyIN4Tins9PDUOptionIhNS0_3TCPEEEEvPT_ W
_ZSt8_DestroyIN4Tins9PDUOptionIhNS0_4DHCPEEEEvPT_ W
_ZSt8_DestroyIN4Tins9PDUOptionIhNS0_4IPv6EEEEvPT_ W
_ZSt8_DestroyIN4Tins9PDUOptionIhNS0_6ICMPv6EEEEvPT_ W
_ZSt8_DestroyIN4Tins9PDUOptionINS0_2IP17option_identifierES2_EEEvPT_ W
_ZSt8_DestroyIN4Tins9PDUOptionINS0_5PPPoE8TagTypesES2_EEEvPT_ W
_ZSt8_DestroyIN4Tins9PDUOptionItNS0_6DHCPv6EEEEvPT_ W
_ZSt8_DestroyIN9__gnu_cxx17__normal_iteratorIPhSt6vectorIhSaIhEEEEEvT_S7_ W
_ZSt8_DestroyIN9__gnu_cxx17__normal_iteratorIPhSt6vectorIhSaIhEEEEhEvT_S7_RSaIT0_E W
_ZSt8_DestroyIN9__gnu_cxx17__normal_iteratorIPN4Tins11IPv6AddressESt6vectorIS3_SaIS3_EEEEEvT_S9_ W
_ZSt8_DestroyIN9__gnu_cxx17__normal_iteratorIPN4Tins11IPv6AddressESt6vectorIS3_SaIS3_EEEES3_EvT_S9_RSaIT0_E W
_ZSt8_DestroyIN9__gnu_cxx17__normal_iteratorIPN4Tins13ICMPExtensionESt6vectorIS3_SaIS3_EEEEEvT_S9_ W
_ZSt8_DestroyIN9__gnu_cxx17__normal_iteratorIPN4Tins13ICMPExtensionESt6vectorIS3_SaIS3_EEEES3_EvT_S9_RSaIT0_E W
_ZSt8_DestroyIN9__gnu_cxx17__normal_iteratorIPN4Tins6ICMPv624multicast_address_recordESt6vectorIS4_SaIS4_EEEEEvT_SA_ W
_ZSt8_DestroyIN9__gnu_cxx17__normal_iteratorIPN4Tins6ICMPv624multicast_address_recordESt6vectorIS4_SaIS4_EEEES4_EvT_SA_RSaIT0_E W
_ZSt8_DestroyIN9__gnu_cxx17__normal_iteratorIPN4Tins9PDUOptionINS2_2IP17option_identifierES4_EESt6vectorIS6_SaIS6_EEEEEvT_SC_ W
_ZSt8_DestroyIN9__gnu_cxx17__normal_iteratorIPN4Tins9PDUOptionINS2_2IP17option_identifierES4_EESt6vectorIS6_SaIS6_EEEES6_EvT_SC_RSaIT0_E W
_ZSt8_DestroyIN9__gnu_cxx17__normal_iteratorIPSt4pairIhSt6vectorIhSaIhEEES3_IS6_SaIS6_EEEEEvT_SB_ W
_ZSt8_DestroyIN9__gnu_cxx17__normal_iteratorIPSt4pairIhSt6vectorIhSaIhEEES3_IS6_SaIS6_EEEES6_EvT_SB_RSaIT0_E W
_ZSt8_DestroyIN9__gnu_cxx17__normal_iteratorIPSt6vectorIhSaIhEES2_IS4_SaIS4_EEEEEvT_S9_ W
_ZSt8_DestroyIN9__gnu_cxx17__normal_iteratorIPSt6vectorIhSaIhEES2_IS4_SaIS4_EEEES4_EvT_S9_RSaIT0_E W
_ZSt8_DestroyIPfEvT_S1_ W
_ZSt8_DestroyIPffEvT_S1_RSaIT0_E W
_ZSt8_DestroyIPhEvT_S1_ W
_ZSt8_DestroyIPhhEvT_S1_RSaIT0_E W
_ZSt8_DestroyIPiEvT_S1_ W
_ZSt8_DestroyIPiiEvT_S1_RSaIT0_E W
_ZSt8_DestroyIPjEvT_S1_ W
_ZSt8_DestroyIPjjEvT_S1_RSaIT0_E W
_ZSt8_DestroyIPN4Tins11IPv4AddressEEvT_S3_ W
_ZSt8_DestroyIPN4Tins11IPv4AddressES1_EvT_S3_RSaIT0_E W
_ZSt8_DestroyIPN4Tins11IPv6AddressEEvT_S3_ W
_ZSt8_DestroyIPN4Tins11IPv6AddressES1_EvT_S3_RSaIT0_E W
_ZSt8_DestroyIPN4Tins13ICMPExtensionEEvT_S3_ W
_ZSt8_DestroyIPN4Tins13ICMPExtensionES1_EvT_S3_RSaIT0_E W
_ZSt8_DestroyIPN4Tins16NetworkInterface10IPv6PrefixEEvT_S4_ W
_ZSt8_DestroyIPN4Tins16NetworkInterface10IPv6PrefixES2_EvT_S4_RSaIT0_E W
_ZSt8_DestroyIPN4Tins16NetworkInterfaceEEvT_S3_ W
_ZSt8_DestroyIPN4Tins16NetworkInterfaceES1_EvT_S3_RSaIT0_E W
_ZSt8_DestroyIPN4Tins3DNS5queryEEvT_S4_ W
_ZSt8_DestroyIPN4Tins3DNS5queryES2_EvT_S4_RSaIT0_E W
_ZSt8_DestroyIPN4Tins3DNS8resourceEEvT_S4_ W
_ZSt8_DestroyIPN4Tins3DNS8resourceES2_EvT_S4_RSaIT0_E W
_ZSt8_DestroyIPN4Tins5Utils10RouteEntryEEvT_S4_ W
_ZSt8_DestroyIPN4Tins5Utils10RouteEntryES2_EvT_S4_RSaIT0_E W
_ZSt8_DestroyIPN4Tins5Utils11Route6EntryEEvT_S4_ W
_ZSt8_DestroyIPN4Tins5Utils11Route6EntryES2_EvT_S4_RSaIT0_E W
_ZSt8_DestroyIPN4Tins6ICMPv624multicast_address_recordEEvT_S4_ W
_ZSt8_DestroyIPN4Tins6ICMPv624multicast_address_recordES2_EvT_S4_RSaIT0_E W
_ZSt8_DestroyIPN4Tins9Internals12IPv4FragmentEEvT_S4_ W
_ZSt8_DestroyIPN4Tins9Internals12IPv4FragmentES2_EvT_S4_RSaIT0_E W
_ZSt8_DestroyIPN4Tins9PDUOptionIhNS0_3TCPEEEEvT_S5_ W
_ZSt8_DestroyIPN4Tins9PDUOptionIhNS0_3TCPEEES3_EvT_S5_RSaIT0_E W
_ZSt8_DestroyIPN4Tins9PDUOptionIhNS0_4DHCPEEEEvT_S5_ W
_ZSt8_DestroyIPN4Tins9PDUOptionIhNS0_4DHCPEEES3_EvT_S5_RSaIT0_E W
_ZSt8_DestroyIPN4Tins9PDUOptionIhNS0_4IPv6EEEEvT_S5_ W
_ZSt8_DestroyIPN4Tins9PDUOptionIhNS0_4IPv6EEES3_EvT_S5_RSaIT0_E W
_ZSt8_DestroyIPN4Tins9PDUOptionIhNS0_6ICMPv6EEEEvT_S5_ W
_ZSt8_DestroyIPN4Tins9PDUOptionIhNS0_6ICMPv6EEES3_EvT_S5_RSaIT0_E W
_ZSt8_DestroyIPN4Tins9PDUOptionINS0_2IP17option_identifierES2_EEEvT_S6_ W
_ZSt8_DestroyIPN4Tins9PDUOptionINS0_2IP17option_identifierES2_EES4_EvT_S6_RSaIT0_E W
_ZSt8_DestroyIPN4Tins9PDUOptionINS0_5PPPoE8TagTypesES2_EEEvT_S6_ W
_ZSt8_DestroyIPN4Tins9PDUOptionINS0_5PPPoE8TagTypesES2_EES4_EvT_S6_RSaIT0_E W
_ZSt8_DestroyIPN4Tins9PDUOptionItNS0_6DHCPv6EEEEvT_S5_ W
_ZSt8_DestroyIPN4Tins9PDUOptionItNS0_6DHCPv6EEES3_EvT_S5_RSaIT0_E W
_ZSt8_DestroyIPSsEvT_S1_ W
_ZSt8_DestroyIPSsSsEvT_S1_RSaIT0_E W
_ZSt8_DestroyIPSt4pairIhhEEvT_S3_ W
_ZSt8_DestroyIPSt4pairIhhES1_EvT_S3_RSaIT0_E W
_ZSt8_DestroyIPSt4pairIhSt6vectorIhSaIhEEEEvT_S6_ W
_ZSt8_DestroyIPSt4pairIhSt6vectorIhSaIhEEES4_EvT_S6_RSaIT0_E W
_ZSt8_DestroyIPSt4pairIPjjEEvT_S4_ W
_ZSt8_DestroyIPSt4pairIPjjES2_EvT_S4_RSaIT0_E W
_ZSt8_DestroyIPSt6vectorIhSaIhEEEvT_S4_ W
_ZSt8_DestroyIPSt6vectorIhSaIhEES2_EvT_S4_RSaIT0_E W
_ZSt8_DestroyIPtEvT_S1_ W
_ZSt8_DestroyIPttEvT_S1_RSaIT0_E W
_ZSt8_DestroyISsEvPT_ W
_ZSt8_DestroyISt4pairIhSt6vectorIhSaIhEEEEvPT_ W
_ZSt8_DestroyISt6vectorIhSaIhEEEvPT_ W
_ZSt8distanceIN9__gnu_cxx17__normal_iteratorIPcSsEEENSt15iterator_traitsIT_E15difference_typeES5_S5_ W
_ZSt8distanceIN9__gnu_cxx17__normal_iteratorIPhSt6vectorIhSaIhEEEEENSt15iterator_traitsIT_E15difference_typeES8_S8_ W
_ZSt8distanceIN9__gnu_cxx17__normal_iteratorIPKcSsEEENSt15iterator_traitsIT_E15difference_typeES6_S6_ W
_ZSt8distanceIN9__gnu_cxx17__normal_iteratorIPKhSt6vectorIhSaIhEEEEENSt15iterator_traitsIT_E15difference_typeES9_S9_ W
_ZSt8distanceIPhENSt15iterator_traitsIT_E15difference_typeES2_S2_ W
_ZSt8distanceIPKhENSt15iterator_traitsIT_E15difference_typeES3_S3_ W
_ZSt8__fill_aIhEN9__gnu_cxx11__enable_ifIXsrSt9__is_byteIT_E7__valueEvE6__typeEPS3_S7_RKS3_ W
_ZSt9__advanceIN9__gnu_cxx17__normal_iteratorIPcSsEElEvRT_T0_St26random_access_iterator_tag W
_ZSt9__advanceIN9__gnu_cxx17__normal_iteratorIPKcSsEElEvRT_T0_St26random_access_iterator_tag W
_ZSt9__advanceIN9__gnu_cxx17__normal_iteratorIPKhSt6vectorIhSaIhEEEElEvRT_T0_St26random_access_iterator_tag W
_ZSt9__advanceIPKhlEvRT_T0_St26random_access_iterator_tag W
_ZSt9make_pairIhSt6vectorIhSaIhEEESt4pairIT_T0_ES4_S5_ W
_ZSt9make_pairIN4Tins11IPv4AddressES1_ESt4pairIT_T0_ES3_S4_ W
_ZSt9make_pairIPjtESt4pairIT_T0_ES2_S3_ W
_ZSt9make_pairItSt4pairIN4Tins11IPv4AddressES2_EES0_IT_T0_ES4_S5_ W
_ZSteqIcEbRKSaIT_ES3_ W
_ZSteqIwEbRKSaIT_ES3_ W
_ZStltIcSt11char_traitsIcESaIcEEbRKSbIT_T0_T1_ES8_ W
_ZStltIN4Tins11IPv4AddressES1_EbRKSt4pairIT_T0_ES7_ W
_ZStltItSt4pairIN4Tins11IPv4AddressES2_EEbRKS0_IT_T0_ES8_ W
_ZTIN4Tins10EthernetIIE V
_ZTIN4Tins14exception_baseE V
_ZTIN4Tins15invalid_addressE V
_ZTIN4Tins15value_too_largeE V
_ZTIN4Tins16malformed_optionE V
_ZTIN4Tins16malformed_packetE V
_ZTIN4Tins16option_not_foundE V
_ZTIN4Tins17invalid_interfaceE V
_ZTIN4Tins17socket_open_errorE V
_ZTIN4Tins18socket_close_errorE V
_ZTIN4Tins18socket_write_errorE V
_ZTIN4Tins19invalid_domain_nameE V
_ZTIN4Tins19invalid_socket_typeE V
_ZTIN4Tins19serialization_errorE V
_ZTIN4Tins24option_payload_too_largeE V
_ZTIN4Tins29invalid_ipv6_extension_headerE V
_ZTIN4Tins2IPE V
_ZTIN4Tins3ARPE V
_ZTIN4Tins3DNSE V
_ZTIN4Tins3LLCE V
_ZTIN4Tins3PDUE V
_ZTIN4Tins3SLLE V
_ZTIN4Tins3STPE V
_ZTIN4Tins3TCPE V
_ZTIN4Tins3UDPE V
_ZTIN4Tins4DHCPE V
_ZTIN4Tins4Dot3E V
_ZTIN4Tins4ICMPE V
_ZTIN4Tins4IPv6E V
_ZTIN4Tins4MPLSE V
_ZTIN4Tins4SNAPE V
_ZTIN4Tins5BootPE V
_ZTIN4Tins5Dot1QE V
_ZTIN4Tins5EAPOLE V
_ZTIN4Tins5PPPoEE V
_ZTIN4Tins6DHCPv6E V
_ZTIN4Tins6ICMPv6E V
_ZTIN4Tins6RawPDUE V
_ZTIN4Tins7IPSecAHE V
_ZTIN4Tins8IPSecESPE V
_ZTIN4Tins8LoopbackE V
_ZTIN4Tins8RC4EAPOLE V
_ZTIN4Tins8RSNEAPOLE V
_ZTSN4Tins10EthernetIIE V
_ZTSN4Tins14exception_baseE V
_ZTSN4Tins15invalid_addressE V
_ZTSN4Tins15value_too_largeE V
_ZTSN4Tins16malformed_optionE V
_ZTSN4Tins16malformed_packetE V
_ZTSN4Tins16option_not_foundE V
_ZTSN4Tins17invalid_interfaceE V
_ZTSN4Tins17socket_open_errorE V
_ZTSN4Tins18socket_close_errorE V
_ZTSN4Tins18socket_write_errorE V
_ZTSN4Tins19invalid_domain_nameE V
_ZTSN4Tins19invalid_socket_typeE V
_ZTSN4Tins19serialization_errorE V
_ZTSN4Tins24option_payload_too_largeE V
_ZTSN4Tins29invalid_ipv6_extension_headerE V
_ZTSN4Tins2IPE V
_ZTSN4Tins3ARPE V
_ZTSN4Tins3DNSE V
_ZTSN4Tins3LLCE V
_ZTSN4Tins3PDUE V
_ZTSN4Tins3SLLE V
_ZTSN4Tins3STPE V
_ZTSN4Tins3TCPE V
_ZTSN4Tins3UDPE V
_ZTSN4Tins4DHCPE V
_ZTSN4Tins4Dot3E V
_ZTSN4Tins4ICMPE V
_ZTSN4Tins4IPv6E V
_ZTSN4Tins4MPLSE V
_ZTSN4Tins4SNAPE V
_ZTSN4Tins5BootPE V
_ZTSN4Tins5Dot1QE V
_ZTSN4Tins5EAPOLE V
_ZTSN4Tins5PPPoEE V
_ZTSN4Tins6DHCPv6E V
_ZTSN4Tins6ICMPv6E V
_ZTSN4Tins6RawPDUE V
_ZTSN4Tins7IPSecAHE V
_ZTSN4Tins8IPSecESPE V
_ZTSN4Tins8LoopbackE V
_ZTSN4Tins8RC4EAPOLE V
_ZTSN4Tins8RSNEAPOLE V
_ZTVN4Tins10EthernetIIE V
_ZTVN4Tins14exception_baseE V
_ZTVN4Tins15invalid_addressE V
_ZTVN4Tins15value_too_largeE V
_ZTVN4Tins16malformed_optionE V
_ZTVN4Tins16malformed_packetE V
_ZTVN4Tins16option_not_foundE V
_ZTVN4Tins17invalid_interfaceE V
_ZTVN4Tins17socket_open_errorE V
_ZTVN4Tins18socket_close_errorE V
_ZTVN4Tins18socket_write_errorE V
_ZTVN4Tins19invalid_domain_nameE V
_ZTVN4Tins19invalid_socket_typeE V
_ZTVN4Tins19serialization_errorE V
_ZTVN4Tins24option_payload_too_largeE V
_ZTVN4Tins29invalid_ipv6_extension_headerE V
_ZTVN4Tins2IPE V
_ZTVN4Tins3ARPE V
_ZTVN4Tins3DNSE V
_ZTVN4Tins3LLCE V
_ZTVN4Tins3PDUE V
_ZTVN4Tins3SLLE V
_ZTVN4Tins3STPE V
_ZTVN4Tins3TCPE V
_ZTVN4Tins3UDPE V
_ZTVN4Tins4DHCPE V
_ZTVN4Tins4Dot3E V
_ZTVN4Tins4ICMPE V
_ZTVN4Tins4IPv6E V
_ZTVN4Tins4MPLSE V
_ZTVN4Tins4SNAPE V
_ZTVN4Tins5BootPE V
_ZTVN4Tins5Dot1QE V
_ZTVN4Tins5EAPOLE V
_ZTVN4Tins5PPPoEE V
_ZTVN4Tins6DHCPv6E V
_ZTVN4Tins6ICMPv6E V
_ZTVN4Tins6RawPDUE V
_ZTVN4Tins7IPSecAHE V
_ZTVN4Tins8IPSecESPE V
_ZTVN4Tins8LoopbackE V
_ZTVN4Tins8RC4EAPOLE V
_ZTVN4Tins8RSNEAPOLE V
